Archive member included because of file (symbol)

c:/devkitPro/PAlib/lib\libpa9.a(PA.o)
                              main.o (PA_CheckLid)
c:/devkitPro/PAlib/lib\libpa9.a(PA_BgTiles.o)
                              screen.o (PA_BgInfo)
c:/devkitPro/PAlib/lib\libpa9.a(PA_Error.o)
                              c:/devkitPro/PAlib/lib\libpa9.a(PA_BgTiles.o) (PA_Error)
c:/devkitPro/PAlib/lib\libpa9.a(PA_Inits.o)
                              c:/devkitPro/PAlib/lib\libpa9.a(PA_Error.o) (PA_Init2D)
c:/devkitPro/PAlib/lib\libpa9.a(PA_Interrupt.o)
                              c:/devkitPro/PAlib/lib\libpa9.a(PA_Inits.o) (PA_VBLCountersReset)
c:/devkitPro/PAlib/lib\libpa9.a(PA_Keys.o)
                              c:/devkitPro/PAlib/lib\libpa9.a(PA_Interrupt.o) (PA_UpdatePad)
c:/devkitPro/PAlib/lib\libpa9.a(PA_Math.o)
                              c:/devkitPro/PAlib/lib\libpa9.a(PA_Inits.o) (RandomValue)
c:/devkitPro/PAlib/lib\libpa9.a(PA_NewBg.o)
                              screen.o (PA_LoadBackground)
c:/devkitPro/PAlib/lib\libpa9.a(PA_Palette.o)
                              c:/devkitPro/PAlib/lib\libpa9.a(PA_Inits.o) (PA_InitSpriteExtPal)
c:/devkitPro/PAlib/lib\libpa9.a(PA_RTC.o)
                              c:/devkitPro/PAlib/lib\libpa9.a(PA_Inits.o) (PA_UpdateUserInfo)
c:/devkitPro/PAlib/lib\libpa9.a(PA_Reco.o)
                              c:/devkitPro/PAlib/lib\libpa9.a(PA_Inits.o) (PA_UseGraffiti)
c:/devkitPro/PAlib/lib\libpa9.a(PA_Sprite.o)
                              c:/devkitPro/PAlib/lib\libpa9.a(PA_Inits.o) (PA_ResetSpriteSys)
c:/devkitPro/PAlib/lib\libpa9.a(PA_Stuff.o)
                              c:/devkitPro/PAlib/lib\libpa9.a(PA_BgTiles.o) (PA_SetVideoMode)
c:/devkitPro/PAlib/lib\libpa9.a(PA_Text.o)
                              c:/devkitPro/PAlib/lib\libpa9.a(PA_Inits.o) (PA_textpal)
c:/devkitPro/PAlib/lib\libpa9.a(PA_Text8bit.o)
                              c:/devkitPro/PAlib/lib\libpa9.a(PA_NewBg.o) (bit8_tiles)
c:/devkitPro/PAlib/lib\libpa9.a(PA_TextBits.o)
                              c:/devkitPro/PAlib/lib\libpa9.a(PA_Text8bit.o) (PA_LetterPos)
c:/devkitPro/PAlib/lib\libpa9.a(PA_TiledFont.o)
                              c:/devkitPro/PAlib/lib\libpa9.a(PA_Text.o) (PA_TiledFont)
c:/devkitPro/PAlib/lib\libpa9.a(PA_BmpFont0.o)
                              c:/devkitPro/PAlib/lib\libpa9.a(PA_Inits.o) (PA_BmpFont0)
c:/devkitPro/PAlib/lib\libpa9.a(PA_BmpFont1.o)
                              c:/devkitPro/PAlib/lib\libpa9.a(PA_Inits.o) (PA_BmpFont1)
c:/devkitPro/PAlib/lib\libpa9.a(PA_BmpFont2.o)
                              c:/devkitPro/PAlib/lib\libpa9.a(PA_Inits.o) (PA_BmpFont2)
c:/devkitPro/PAlib/lib\libpa9.a(PA_BmpFont3.o)
                              c:/devkitPro/PAlib/lib\libpa9.a(PA_Inits.o) (PA_BmpFont3)
c:/devkitPro/PAlib/lib\libpa9.a(PA_BmpFont4.o)
                              c:/devkitPro/PAlib/lib\libpa9.a(PA_Inits.o) (PA_BmpFont4)
c:/devkitPro/PAlib/lib\libpa9.a(PA_TiledFont_Map.bin.o)
                              c:/devkitPro/PAlib/lib\libpa9.a(PA_Inits.o) (PA_TiledFont_Map)
c:/devkitPro/PAlib/lib\libpa9.a(PA_TiledFont_Pal.bin.o)
                              c:/devkitPro/PAlib/lib\libpa9.a(PA_Inits.o) (PA_TiledFont_Pal)
c:/devkitPro/PAlib/lib\libpa9.a(PA_TiledFont_Tiles.bin.o)
                              c:/devkitPro/PAlib/lib\libpa9.a(PA_Inits.o) (PA_TiledFont_Tiles)
c:/devkitPro/PAlib/lib\libpa9.a(PA_BmpFont0_Map.bin.o)
                              c:/devkitPro/PAlib/lib\libpa9.a(PA_TextBits.o) (PA_BmpFont0_Map)
c:/devkitPro/PAlib/lib\libpa9.a(PA_BmpFont0_Sizes.bin.o)
                              c:/devkitPro/PAlib/lib\libpa9.a(PA_TextBits.o) (PA_BmpFont0_Sizes)
c:/devkitPro/PAlib/lib\libpa9.a(PA_BmpFont0_Tiles.bin.o)
                              c:/devkitPro/PAlib/lib\libpa9.a(PA_Inits.o) (PA_BmpFont0_Tiles_size)
c:/devkitPro/PAlib/lib\libpa9.a(PA_BmpFont1_Map.bin.o)
                              c:/devkitPro/PAlib/lib\libpa9.a(PA_TextBits.o) (PA_BmpFont1_Map)
c:/devkitPro/PAlib/lib\libpa9.a(PA_BmpFont1_Sizes.bin.o)
                              c:/devkitPro/PAlib/lib\libpa9.a(PA_TextBits.o) (PA_BmpFont1_Sizes)
c:/devkitPro/PAlib/lib\libpa9.a(PA_BmpFont1_Tiles.bin.o)
                              c:/devkitPro/PAlib/lib\libpa9.a(PA_Inits.o) (PA_BmpFont1_Tiles_size)
c:/devkitPro/PAlib/lib\libpa9.a(PA_BmpFont2_Map.bin.o)
                              c:/devkitPro/PAlib/lib\libpa9.a(PA_TextBits.o) (PA_BmpFont2_Map)
c:/devkitPro/PAlib/lib\libpa9.a(PA_BmpFont2_Sizes.bin.o)
                              c:/devkitPro/PAlib/lib\libpa9.a(PA_TextBits.o) (PA_BmpFont2_Sizes)
c:/devkitPro/PAlib/lib\libpa9.a(PA_BmpFont2_Tiles.bin.o)
                              c:/devkitPro/PAlib/lib\libpa9.a(PA_Inits.o) (PA_BmpFont2_Tiles_size)
c:/devkitPro/PAlib/lib\libpa9.a(PA_BmpFont3_Map.bin.o)
                              c:/devkitPro/PAlib/lib\libpa9.a(PA_TextBits.o) (PA_BmpFont3_Map)
c:/devkitPro/PAlib/lib\libpa9.a(PA_BmpFont3_Sizes.bin.o)
                              c:/devkitPro/PAlib/lib\libpa9.a(PA_TextBits.o) (PA_BmpFont3_Sizes)
c:/devkitPro/PAlib/lib\libpa9.a(PA_BmpFont3_Tiles.bin.o)
                              c:/devkitPro/PAlib/lib\libpa9.a(PA_Inits.o) (PA_BmpFont3_Tiles_size)
c:/devkitPro/PAlib/lib\libpa9.a(PA_BmpFont4_Map.bin.o)
                              c:/devkitPro/PAlib/lib\libpa9.a(PA_TextBits.o) (PA_BmpFont4_Map)
c:/devkitPro/PAlib/lib\libpa9.a(PA_BmpFont4_Sizes.bin.o)
                              c:/devkitPro/PAlib/lib\libpa9.a(PA_TextBits.o) (PA_BmpFont4_Sizes)
c:/devkitPro/PAlib/lib\libpa9.a(PA_BmpFont4_Tiles.bin.o)
                              c:/devkitPro/PAlib/lib\libpa9.a(PA_Inits.o) (PA_BmpFont4_Tiles_size)
c:/devkitPro/PAlib/lib\libpa9.a(PA_16c.o)
                              c:/devkitPro/PAlib/lib\libpa9.a(PA_NewBg.o) (c16_tiles)
c:/devkitPro/PAlib/lib\libpa9.a(PA_BgEasy.o)
                              c:/devkitPro/PAlib/lib\libpa9.a(PA_NewBg.o) (PA_StoreEasyBgInfos)
c:/devkitPro/PAlib/lib\libpa9.a(PA_BgLargeMap.o)
                              c:/devkitPro/PAlib/lib\libpa9.a(PA_BgEasy.o) (PA_InfLargeScrollXN)
c:/devkitPro/PAlib/lib\libpa9.a(PA_BgRot.o)
                              c:/devkitPro/PAlib/lib\libpa9.a(PA_NewBg.o) (PA_LoadRotBgMap)
c:/devkitPro/PAlib/lib\libpa9.a(PA_Draw.o)
                              c:/devkitPro/PAlib/lib\libpa9.a(PA_Text8bit.o) (PA_DrawBg)
c:/devkitPro/PAlib/lib\libpa9.a(PA_Fifo.o)
                              c:/devkitPro/PAlib/lib\libpa9.a(PA_Inits.o) (PA_InitFifo)
c:/devkitPro/PAlib/lib\libpa9.a(PA_Keyboard.o)
                              c:/devkitPro/PAlib/lib\libpa9.a(PA_NewBg.o) (PA_Keyboard_Struct)
c:/devkitPro/PAlib/lib\libpa9.a(PA_PaletteEx.o)
                              c:/devkitPro/PAlib/lib\libpa9.a(PA_Text.o) (PA_SetBgPalNCol)
c:/devkitPro/PAlib/lib\libpa9.a(keyboard.map.o)
                              c:/devkitPro/PAlib/lib\libpa9.a(PA_Keyboard.o) (keyboard_Map)
c:/devkitPro/PAlib/lib\libpa9.a(keyboard.pal.o)
                              c:/devkitPro/PAlib/lib\libpa9.a(PA_Keyboard.o) (keyboard_Palette)
c:/devkitPro/PAlib/lib\libpa9.a(keyboard.raw.o)
                              c:/devkitPro/PAlib/lib\libpa9.a(PA_Keyboard.o) (keyboard_Tiles)
c:/devkitPro/libnds/lib\libnds9.a(exceptions.o)
                              gdbStub.o (setExceptionHandler)
c:/devkitPro/libnds/lib\libnds9.a(keys.o)
                              gdbStub.o (scanKeys)
c:/devkitPro/libnds/lib\libnds9.a(system.o)
                              c:/devkitPro/PAlib/lib\libpa9.a(PA_Inits.o) (powerOn)
c:/devkitPro/libnds/lib\libnds9.a(touch.o)
                              c:/devkitPro/PAlib/lib\libpa9.a(PA_Keys.o) (touchRead)
c:/devkitPro/libnds/lib\libnds9.a(video.o)
                              c:/devkitPro/PAlib/lib\libpa9.a(PA_Inits.o) (vramSetMainBanks)
c:/devkitPro/libnds/lib\libnds9.a(initSystem.o)
                              c:/devkitpro/devkitarm/bin/../lib/gcc/arm-none-eabi/4.7.1/../../../../arm-none-eabi/lib/thumb/ds_arm9_crt0.o (initSystem)
c:/devkitPro/libnds/lib\libnds9.a(fifosystem.o)
                              c:/devkitPro/PAlib/lib\libpa9.a(PA.o) (fifoSendValue32)
c:/devkitPro/libnds/lib\libnds9.a(interrupts.o)
                              card_spi.o (irqSet)
c:/devkitPro/libnds/lib\libnds9.a(libnds_exit.arm.o)
                              c:/devkitpro/devkitarm/bin/../lib/gcc/arm-none-eabi/4.7.1/../../../../arm-none-eabi/lib/thumb/ds_arm9_crt0.o (__libnds_exit)
c:/devkitPro/libnds/lib\libnds9.a(dcache.o)
                              c:/devkitPro/PAlib/lib\libpa9.a(PA_BgTiles.o) (DC_FlushRange)
c:/devkitPro/libnds/lib\libnds9.a(exceptionHandler.o)
                              gdbStub.o (getCPSR)
c:/devkitPro/libnds/lib\libnds9.a(mpu_setup.o)
                              c:/devkitpro/devkitarm/bin/../lib/gcc/arm-none-eabi/4.7.1/../../../../arm-none-eabi/lib/thumb/ds_arm9_crt0.o (__libnds_mpu_setup)
c:/devkitPro/libnds/lib\libnds9.a(biosCalls.o)
                              card_spi.o (swiDelay)
c:/devkitPro/libnds/lib\libnds9.a(interruptDispatcher.o)
                              c:/devkitPro/libnds/lib\libnds9.a(interrupts.o) (IntrMain)
c:/devkitPro/libnds/lib\libnds9.a(swiSoftReset.o)
                              c:/devkitPro/libnds/lib\libnds9.a(fifosystem.o) (swiSoftReset)
c:/devkitpro/devkitarm/bin/../lib/gcc/arm-none-eabi/4.7.1/thumb\libgcc.a(_divsi3.o)
                              c:/devkitPro/PAlib/lib\libpa9.a(PA_Keys.o) (__aeabi_idiv)
c:/devkitpro/devkitarm/bin/../lib/gcc/arm-none-eabi/4.7.1/thumb\libgcc.a(_dvmd_tls.o)
                              c:/devkitpro/devkitarm/bin/../lib/gcc/arm-none-eabi/4.7.1/thumb\libgcc.a(_divsi3.o) (__aeabi_idiv0)
c:/devkitpro/devkitarm/bin/../lib/gcc/arm-none-eabi/4.7.1/thumb\libgcc.a(_arm_addsubdf3.o)
                              c:/devkitPro/PAlib/lib\libpa9.a(PA_Text.o) (__aeabi_dsub)
c:/devkitpro/devkitarm/bin/../lib/gcc/arm-none-eabi/4.7.1/thumb\libgcc.a(_arm_muldivdf3.o)
                              c:/devkitPro/PAlib/lib\libpa9.a(PA_Text.o) (__aeabi_dmul)
c:/devkitpro/devkitarm/bin/../lib/gcc/arm-none-eabi/4.7.1/thumb\libgcc.a(_arm_cmpdf2.o)
                              c:/devkitPro/PAlib/lib\libpa9.a(PA_Text.o) (__aeabi_dcmplt)
c:/devkitpro/devkitarm/bin/../lib/gcc/arm-none-eabi/4.7.1/thumb\libgcc.a(_arm_fixdfsi.o)
                              c:/devkitPro/PAlib/lib\libpa9.a(PA_Text.o) (__aeabi_d2iz)
c:/devkitpro/devkitarm/bin/../lib/gcc/arm-none-eabi/4.7.1/thumb\libgcc.a(_muldi3.o)
                              c:/devkitPro/PAlib/lib\libpa9.a(PA_Math.o) (__aeabi_lmul)
c:/devkitpro/devkitarm/bin/../lib/gcc/arm-none-eabi/4.7.1/../../../../arm-none-eabi/lib/thumb\libg.a(lib_a-gmtime.o)
                              c:/devkitPro/PAlib/lib\libpa9.a(PA_RTC.o) (gmtime)
c:/devkitpro/devkitarm/bin/../lib/gcc/arm-none-eabi/4.7.1/../../../../arm-none-eabi/lib/thumb\libg.a(lib_a-gmtime_r.o)
                              c:/devkitpro/devkitarm/bin/../lib/gcc/arm-none-eabi/4.7.1/../../../../arm-none-eabi/lib/thumb\libg.a(lib_a-gmtime.o) (gmtime_r)
c:/devkitpro/devkitarm/bin/../lib/gcc/arm-none-eabi/4.7.1/../../../../arm-none-eabi/lib/thumb\libg.a(lib_a-impure.o)
                              c:/devkitpro/devkitarm/bin/../lib/gcc/arm-none-eabi/4.7.1/../../../../arm-none-eabi/lib/thumb\libg.a(lib_a-gmtime.o) (_impure_ptr)
c:/devkitpro/devkitarm/bin/../lib/gcc/arm-none-eabi/4.7.1/../../../../arm-none-eabi/lib/thumb\libg.a(lib_a-init.o)
                              c:/devkitpro/devkitarm/bin/../lib/gcc/arm-none-eabi/4.7.1/../../../../arm-none-eabi/lib/thumb/ds_arm9_crt0.o (__libc_init_array)
c:/devkitpro/devkitarm/bin/../lib/gcc/arm-none-eabi/4.7.1/../../../../arm-none-eabi/lib/thumb\libg.a(lib_a-locale.o)
                              c:/devkitPro/PAlib/lib\libpa9.a(PA_Inits.o) (setlocale)
c:/devkitpro/devkitarm/bin/../lib/gcc/arm-none-eabi/4.7.1/../../../../arm-none-eabi/lib/thumb\libg.a(lib_a-malloc.o)
                              heap_3.o (malloc)
c:/devkitpro/devkitarm/bin/../lib/gcc/arm-none-eabi/4.7.1/../../../../arm-none-eabi/lib/thumb\libg.a(lib_a-mallocr.o)
                              c:/devkitpro/devkitarm/bin/../lib/gcc/arm-none-eabi/4.7.1/../../../../arm-none-eabi/lib/thumb\libg.a(lib_a-malloc.o) (_malloc_r)
c:/devkitpro/devkitarm/bin/../lib/gcc/arm-none-eabi/4.7.1/../../../../arm-none-eabi/lib/thumb\libg.a(lib_a-mbtowc_r.o)
                              c:/devkitpro/devkitarm/bin/../lib/gcc/arm-none-eabi/4.7.1/../../../../arm-none-eabi/lib/thumb\libg.a(lib_a-locale.o) (__utf8_mbtowc)
c:/devkitpro/devkitarm/bin/../lib/gcc/arm-none-eabi/4.7.1/../../../../arm-none-eabi/lib/thumb\libg.a(lib_a-memcpy-stub.o)
                              queue.o (memcpy)
c:/devkitpro/devkitarm/bin/../lib/gcc/arm-none-eabi/4.7.1/../../../../arm-none-eabi/lib/thumb\libg.a(lib_a-memset.o)
                              tasks.o (memset)
c:/devkitpro/devkitarm/bin/../lib/gcc/arm-none-eabi/4.7.1/../../../../arm-none-eabi/lib/thumb\libg.a(lib_a-mktm_r.o)
                              c:/devkitpro/devkitarm/bin/../lib/gcc/arm-none-eabi/4.7.1/../../../../arm-none-eabi/lib/thumb\libg.a(lib_a-gmtime_r.o) (_mktm_r)
c:/devkitpro/devkitarm/bin/../lib/gcc/arm-none-eabi/4.7.1/../../../../arm-none-eabi/lib/thumb\libg.a(lib_a-mlock.o)
                              c:/devkitpro/devkitarm/bin/../lib/gcc/arm-none-eabi/4.7.1/../../../../arm-none-eabi/lib/thumb\libg.a(lib_a-mallocr.o) (__malloc_lock)
c:/devkitpro/devkitarm/bin/../lib/gcc/arm-none-eabi/4.7.1/../../../../arm-none-eabi/lib/thumb\libg.a(lib_a-sprintf.o)
                              tasks.o (sprintf)
c:/devkitpro/devkitarm/bin/../lib/gcc/arm-none-eabi/4.7.1/../../../../arm-none-eabi/lib/thumb\libg.a(lib_a-strcasecmp.o)
                              c:/devkitPro/PAlib/lib\libpa9.a(PA_Stuff.o) (strcasecmp)
c:/devkitpro/devkitarm/bin/../lib/gcc/arm-none-eabi/4.7.1/../../../../arm-none-eabi/lib/thumb\libg.a(lib_a-strcat.o)
                              tasks.o (strcat)
c:/devkitpro/devkitarm/bin/../lib/gcc/arm-none-eabi/4.7.1/../../../../arm-none-eabi/lib/thumb\libg.a(lib_a-strchr.o)
                              c:/devkitpro/devkitarm/bin/../lib/gcc/arm-none-eabi/4.7.1/../../../../arm-none-eabi/lib/thumb\libg.a(lib_a-locale.o) (strchr)
c:/devkitpro/devkitarm/bin/../lib/gcc/arm-none-eabi/4.7.1/../../../../arm-none-eabi/lib/thumb\libg.a(lib_a-strcmp.o)
                              c:/devkitPro/PAlib/lib\libpa9.a(PA_Stuff.o) (strcmp)
c:/devkitpro/devkitarm/bin/../lib/gcc/arm-none-eabi/4.7.1/../../../../arm-none-eabi/lib/thumb\libg.a(lib_a-strcpy.o)
                              c:/devkitPro/PAlib/lib\libpa9.a(PA_Stuff.o) (strcpy)
c:/devkitpro/devkitarm/bin/../lib/gcc/arm-none-eabi/4.7.1/../../../../arm-none-eabi/lib/thumb\libg.a(lib_a-strlcpy.o)
                              c:/devkitpro/devkitarm/bin/../lib/gcc/arm-none-eabi/4.7.1/../../../../arm-none-eabi/lib/thumb\libg.a(lib_a-locale.o) (strlcpy)
c:/devkitpro/devkitarm/bin/../lib/gcc/arm-none-eabi/4.7.1/../../../../arm-none-eabi/lib/thumb\libg.a(lib_a-strlen.o)
                              c:/devkitPro/PAlib/lib\libpa9.a(PA_Stuff.o) (strlen)
c:/devkitpro/devkitarm/bin/../lib/gcc/arm-none-eabi/4.7.1/../../../../arm-none-eabi/lib/thumb\libg.a(lib_a-strncasecmp.o)
                              c:/devkitpro/devkitarm/bin/../lib/gcc/arm-none-eabi/4.7.1/../../../../arm-none-eabi/lib/thumb\libg.a(lib_a-locale.o) (strncasecmp)
c:/devkitpro/devkitarm/bin/../lib/gcc/arm-none-eabi/4.7.1/../../../../arm-none-eabi/lib/thumb\libg.a(lib_a-strncmp.o)
                              c:/devkitpro/devkitarm/bin/../lib/gcc/arm-none-eabi/4.7.1/../../../../arm-none-eabi/lib/thumb\libg.a(lib_a-locale.o) (strncmp)
c:/devkitpro/devkitarm/bin/../lib/gcc/arm-none-eabi/4.7.1/../../../../arm-none-eabi/lib/thumb\libg.a(lib_a-strncpy.o)
                              tasks.o (strncpy)
c:/devkitpro/devkitarm/bin/../lib/gcc/arm-none-eabi/4.7.1/../../../../arm-none-eabi/lib/thumb\libg.a(lib_a-strtol.o)
                              c:/devkitpro/devkitarm/bin/../lib/gcc/arm-none-eabi/4.7.1/../../../../arm-none-eabi/lib/thumb\libg.a(lib_a-locale.o) (_strtol_r)
c:/devkitpro/devkitarm/bin/../lib/gcc/arm-none-eabi/4.7.1/../../../../arm-none-eabi/lib/thumb\libg.a(lib_a-svfprintf.o)
                              c:/devkitpro/devkitarm/bin/../lib/gcc/arm-none-eabi/4.7.1/../../../../arm-none-eabi/lib/thumb\libg.a(lib_a-sprintf.o) (_svfprintf_r)
c:/devkitpro/devkitarm/bin/../lib/gcc/arm-none-eabi/4.7.1/../../../../arm-none-eabi/lib/thumb\libg.a(lib_a-sysstat.o)
                              c:/devkitPro/PAlib/lib\libpa9.a(PA_Stuff.o) (stat)
c:/devkitpro/devkitarm/bin/../lib/gcc/arm-none-eabi/4.7.1/../../../../arm-none-eabi/lib/thumb\libg.a(lib_a-time.o)
                              c:/devkitPro/PAlib/lib\libpa9.a(PA_RTC.o) (time)
c:/devkitpro/devkitarm/bin/../lib/gcc/arm-none-eabi/4.7.1/../../../../arm-none-eabi/lib/thumb\libg.a(lib_a-tzlock.o)
                              c:/devkitpro/devkitarm/bin/../lib/gcc/arm-none-eabi/4.7.1/../../../../arm-none-eabi/lib/thumb\libg.a(lib_a-mktm_r.o) (__tz_lock)
c:/devkitpro/devkitarm/bin/../lib/gcc/arm-none-eabi/4.7.1/../../../../arm-none-eabi/lib/thumb\libg.a(lib_a-tzvars.o)
                              c:/devkitpro/devkitarm/bin/../lib/gcc/arm-none-eabi/4.7.1/../../../../arm-none-eabi/lib/thumb\libg.a(lib_a-mktm_r.o) (_daylight)
c:/devkitpro/devkitarm/bin/../lib/gcc/arm-none-eabi/4.7.1/../../../../arm-none-eabi/lib/thumb\libg.a(lib_a-wcrtomb.o)
                              c:/devkitpro/devkitarm/bin/../lib/gcc/arm-none-eabi/4.7.1/../../../../arm-none-eabi/lib/thumb\libg.a(lib_a-svfprintf.o) (_wcrtomb_r)
c:/devkitpro/devkitarm/bin/../lib/gcc/arm-none-eabi/4.7.1/../../../../arm-none-eabi/lib/thumb\libg.a(lib_a-wcsrtombs.o)
                              c:/devkitpro/devkitarm/bin/../lib/gcc/arm-none-eabi/4.7.1/../../../../arm-none-eabi/lib/thumb\libg.a(lib_a-svfprintf.o) (_wcsrtombs_r)
c:/devkitpro/devkitarm/bin/../lib/gcc/arm-none-eabi/4.7.1/../../../../arm-none-eabi/lib/thumb\libg.a(lib_a-wctomb_r.o)
                              c:/devkitpro/devkitarm/bin/../lib/gcc/arm-none-eabi/4.7.1/../../../../arm-none-eabi/lib/thumb\libg.a(lib_a-locale.o) (__utf8_wctomb)
c:/devkitpro/devkitarm/bin/../lib/gcc/arm-none-eabi/4.7.1/../../../../arm-none-eabi/lib/thumb\libg.a(lib_a-ctype_.o)
                              c:/devkitpro/devkitarm/bin/../lib/gcc/arm-none-eabi/4.7.1/../../../../arm-none-eabi/lib/thumb\libg.a(lib_a-locale.o) (__set_ctype)
c:/devkitpro/devkitarm/bin/../lib/gcc/arm-none-eabi/4.7.1/../../../../arm-none-eabi/lib/thumb\libg.a(lib_a-dtoa.o)
                              c:/devkitpro/devkitarm/bin/../lib/gcc/arm-none-eabi/4.7.1/../../../../arm-none-eabi/lib/thumb\libg.a(lib_a-svfprintf.o) (_dtoa_r)
c:/devkitpro/devkitarm/bin/../lib/gcc/arm-none-eabi/4.7.1/../../../../arm-none-eabi/lib/thumb\libg.a(lib_a-freer.o)
                              c:/devkitpro/devkitarm/bin/../lib/gcc/arm-none-eabi/4.7.1/../../../../arm-none-eabi/lib/thumb\libg.a(lib_a-malloc.o) (_free_r)
c:/devkitpro/devkitarm/bin/../lib/gcc/arm-none-eabi/4.7.1/../../../../arm-none-eabi/lib/thumb\libg.a(lib_a-getenv_r.o)
                              c:/devkitpro/devkitarm/bin/../lib/gcc/arm-none-eabi/4.7.1/../../../../arm-none-eabi/lib/thumb\libg.a(lib_a-locale.o) (_getenv_r)
c:/devkitpro/devkitarm/bin/../lib/gcc/arm-none-eabi/4.7.1/../../../../arm-none-eabi/lib/thumb\libg.a(lib_a-gettzinfo.o)
                              c:/devkitpro/devkitarm/bin/../lib/gcc/arm-none-eabi/4.7.1/../../../../arm-none-eabi/lib/thumb\libg.a(lib_a-mktm_r.o) (__gettzinfo)
c:/devkitpro/devkitarm/bin/../lib/gcc/arm-none-eabi/4.7.1/../../../../arm-none-eabi/lib/thumb\libg.a(lib_a-memchr-stub.o)
                              c:/devkitpro/devkitarm/bin/../lib/gcc/arm-none-eabi/4.7.1/../../../../arm-none-eabi/lib/thumb\libg.a(lib_a-svfprintf.o) (memchr)
c:/devkitpro/devkitarm/bin/../lib/gcc/arm-none-eabi/4.7.1/../../../../arm-none-eabi/lib/thumb\libg.a(lib_a-mprec.o)
                              c:/devkitpro/devkitarm/bin/../lib/gcc/arm-none-eabi/4.7.1/../../../../arm-none-eabi/lib/thumb\libg.a(lib_a-dtoa.o) (_Balloc)
c:/devkitpro/devkitarm/bin/../lib/gcc/arm-none-eabi/4.7.1/../../../../arm-none-eabi/lib/thumb\libg.a(lib_a-s_fpclassify.o)
                              c:/devkitpro/devkitarm/bin/../lib/gcc/arm-none-eabi/4.7.1/../../../../arm-none-eabi/lib/thumb\libg.a(lib_a-svfprintf.o) (__fpclassifyd)
c:/devkitpro/devkitarm/bin/../lib/gcc/arm-none-eabi/4.7.1/../../../../arm-none-eabi/lib/thumb\libg.a(lib_a-svfiprintf.o)
                              c:/devkitpro/devkitarm/bin/../lib/gcc/arm-none-eabi/4.7.1/../../../../arm-none-eabi/lib/thumb\libg.a(lib_a-svfprintf.o) (__ssprint_r)
c:/devkitpro/devkitarm/bin/../lib/gcc/arm-none-eabi/4.7.1/../../../../arm-none-eabi/lib/thumb\libg.a(lib_a-wcsnrtombs.o)
                              c:/devkitpro/devkitarm/bin/../lib/gcc/arm-none-eabi/4.7.1/../../../../arm-none-eabi/lib/thumb\libg.a(lib_a-wcsrtombs.o) (_wcsnrtombs_r)
c:/devkitpro/devkitarm/bin/../lib/gcc/arm-none-eabi/4.7.1/../../../../arm-none-eabi/lib/thumb\libg.a(lib_a-callocr.o)
                              c:/devkitpro/devkitarm/bin/../lib/gcc/arm-none-eabi/4.7.1/../../../../arm-none-eabi/lib/thumb\libg.a(lib_a-mprec.o) (_calloc_r)
c:/devkitpro/devkitarm/bin/../lib/gcc/arm-none-eabi/4.7.1/../../../../arm-none-eabi/lib/thumb\libg.a(lib_a-environ.o)
                              c:/devkitpro/devkitarm/bin/../lib/gcc/arm-none-eabi/4.7.1/../../../../arm-none-eabi/lib/thumb\libg.a(lib_a-getenv_r.o) (environ)
c:/devkitpro/devkitarm/bin/../lib/gcc/arm-none-eabi/4.7.1/../../../../arm-none-eabi/lib/thumb\libg.a(lib_a-envlock.o)
                              c:/devkitpro/devkitarm/bin/../lib/gcc/arm-none-eabi/4.7.1/../../../../arm-none-eabi/lib/thumb\libg.a(lib_a-getenv_r.o) (__env_lock)
c:/devkitpro/devkitarm/bin/../lib/gcc/arm-none-eabi/4.7.1/../../../../arm-none-eabi/lib/thumb\libg.a(lib_a-memmove.o)
                              c:/devkitpro/devkitarm/bin/../lib/gcc/arm-none-eabi/4.7.1/../../../../arm-none-eabi/lib/thumb\libg.a(lib_a-svfiprintf.o) (memmove)
c:/devkitpro/devkitarm/bin/../lib/gcc/arm-none-eabi/4.7.1/../../../../arm-none-eabi/lib/thumb\libg.a(lib_a-reallocr.o)
                              c:/devkitpro/devkitarm/bin/../lib/gcc/arm-none-eabi/4.7.1/../../../../arm-none-eabi/lib/thumb\libg.a(lib_a-svfiprintf.o) (_realloc_r)
c:/devkitpro/devkitarm/bin/../lib/gcc/arm-none-eabi/4.7.1/../../../../arm-none-eabi/lib/thumb\libsysbase.a(sbrk.o)
                              c:/devkitpro/devkitarm/bin/../lib/gcc/arm-none-eabi/4.7.1/../../../../arm-none-eabi/lib/thumb\libg.a(lib_a-mallocr.o) (_sbrk_r)
c:/devkitpro/devkitarm/bin/../lib/gcc/arm-none-eabi/4.7.1/../../../../arm-none-eabi/lib/thumb\libsysbase.a(stat.o)
                              c:/devkitpro/devkitarm/bin/../lib/gcc/arm-none-eabi/4.7.1/../../../../arm-none-eabi/lib/thumb\libg.a(lib_a-sysstat.o) (_stat_r)
c:/devkitpro/devkitarm/bin/../lib/gcc/arm-none-eabi/4.7.1/../../../../arm-none-eabi/lib/thumb\libsysbase.a(times.o)
                              c:/devkitpro/devkitarm/bin/../lib/gcc/arm-none-eabi/4.7.1/../../../../arm-none-eabi/lib/thumb\libg.a(lib_a-time.o) (_gettimeofday_r)
c:/devkitpro/devkitarm/bin/../lib/gcc/arm-none-eabi/4.7.1/../../../../arm-none-eabi/lib/thumb\libsysbase.a(malloc_vars.o)
                              c:/devkitpro/devkitarm/bin/../lib/gcc/arm-none-eabi/4.7.1/../../../../arm-none-eabi/lib/thumb/ds_arm9_crt0.o (fake_heap_start)
c:/devkitpro/devkitarm/bin/../lib/gcc/arm-none-eabi/4.7.1/../../../../arm-none-eabi/lib/thumb\libsysbase.a(build_argv.o)
                              c:/devkitpro/devkitarm/bin/../lib/gcc/arm-none-eabi/4.7.1/../../../../arm-none-eabi/lib/thumb/ds_arm9_crt0.o (build_argv)
c:/devkitpro/devkitarm/bin/../lib/gcc/arm-none-eabi/4.7.1/../../../../arm-none-eabi/lib/thumb\libsysbase.a(syscall_support.o)
                              c:/devkitPro/libnds/lib\libnds9.a(initSystem.o) (__syscalls)
c:/devkitpro/devkitarm/bin/../lib/gcc/arm-none-eabi/4.7.1/../../../../arm-none-eabi/lib/thumb\libsysbase.a(dirent.o)
                              c:/devkitPro/PAlib/lib\libpa9.a(PA_Stuff.o) (opendir)
c:/devkitpro/devkitarm/bin/../lib/gcc/arm-none-eabi/4.7.1/../../../../arm-none-eabi/lib/thumb\libsysbase.a(iosupport.o)
                              c:/devkitpro/devkitarm/bin/../lib/gcc/arm-none-eabi/4.7.1/../../../../arm-none-eabi/lib/thumb\libsysbase.a(stat.o) (FindDevice)
c:/devkitpro/devkitarm/bin/../lib/gcc/arm-none-eabi/4.7.1/thumb\libgcc.a(_udivsi3.o)
                              c:/devkitpro/devkitarm/bin/../lib/gcc/arm-none-eabi/4.7.1/../../../../arm-none-eabi/lib/thumb\libg.a(lib_a-strtol.o) (__aeabi_uidiv)
c:/devkitpro/devkitarm/bin/../lib/gcc/arm-none-eabi/4.7.1/thumb\libgcc.a(_aeabi_uldivmod.o)
                              c:/devkitpro/devkitarm/bin/../lib/gcc/arm-none-eabi/4.7.1/../../../../arm-none-eabi/lib/thumb\libg.a(lib_a-svfprintf.o) (__aeabi_uldivmod)
c:/devkitpro/devkitarm/bin/../lib/gcc/arm-none-eabi/4.7.1/thumb\libgcc.a(bpabi.o)
                              c:/devkitpro/devkitarm/bin/../lib/gcc/arm-none-eabi/4.7.1/thumb\libgcc.a(_aeabi_uldivmod.o) (__gnu_uldivmod_helper)
c:/devkitpro/devkitarm/bin/../lib/gcc/arm-none-eabi/4.7.1/thumb\libgcc.a(_divdi3.o)
                              c:/devkitpro/devkitarm/bin/../lib/gcc/arm-none-eabi/4.7.1/thumb\libgcc.a(bpabi.o) (__divdi3)
c:/devkitpro/devkitarm/bin/../lib/gcc/arm-none-eabi/4.7.1/thumb\libgcc.a(_udivdi3.o)
                              c:/devkitpro/devkitarm/bin/../lib/gcc/arm-none-eabi/4.7.1/thumb\libgcc.a(bpabi.o) (__udivdi3)
c:/devkitpro/devkitarm/bin/../lib/gcc/arm-none-eabi/4.7.1/thumb\libgcc.a(_clzsi2.o)
                              c:/devkitpro/devkitarm/bin/../lib/gcc/arm-none-eabi/4.7.1/thumb\libgcc.a(_divdi3.o) (__clzsi2)
c:/devkitpro/devkitarm/bin/../lib/gcc/arm-none-eabi/4.7.1/../../../../arm-none-eabi/lib/thumb\libg.a(lib_a-errno.o)
                              c:/devkitpro/devkitarm/bin/../lib/gcc/arm-none-eabi/4.7.1/../../../../arm-none-eabi/lib/thumb\libsysbase.a(times.o) (__errno)
c:/devkitpro/devkitarm/bin/../lib/gcc/arm-none-eabi/4.7.1/../../../../arm-none-eabi/lib/thumb\libg.a(lib_a-strnlen.o)
                              c:/devkitpro/devkitarm/bin/../lib/gcc/arm-none-eabi/4.7.1/../../../../arm-none-eabi/lib/thumb\libsysbase.a(dirent.o) (strnlen)

Allocating common symbols
Common symbol       size              file

PA_ScreenSpace      0x2               c:/devkitPro/PAlib/lib\libpa9.a(PA.o)
altRegisters        0x68              gdbStub.o
PA_Reco             0xc               c:/devkitPro/PAlib/lib\libpa9.a(PA_Reco.o)
fifo_datamsg_data   0x40              c:/devkitPro/libnds/lib\libnds9.a(fifosystem.o)
PA_Draw16           0x8               c:/devkitPro/PAlib/lib\libpa9.a(PA_16c.o)
PA_RTC              0x8               c:/devkitPro/PAlib/lib\libpa9.a(PA_RTC.o)
free_mem            0x2000            c:/devkitPro/PAlib/lib\libpa9.a(PA_Sprite.o)
PadPointer          0x4               c:/devkitPro/PAlib/lib\libpa9.a(PA.o)
__dsimode           0x1               c:/devkitPro/libnds/lib\libnds9.a(initSystem.o)
fifo_buffer         0x800             c:/devkitPro/libnds/lib\libnds9.a(fifosystem.o)
PA_texttiles        0x8               c:/devkitPro/PAlib/lib\libpa9.a(PA_Text.o)
n_free_mem          0x4               c:/devkitPro/PAlib/lib\libpa9.a(PA_Sprite.o)
registers           0x68              gdbStub.o
PA_SpritePrio       0x100             c:/devkitPro/PAlib/lib\libpa9.a(PA_Sprite.o)
PA_LetterPos        0x3004            c:/devkitPro/PAlib/lib\libpa9.a(PA_TextBits.o)
PA_olddowntime      0x4               c:/devkitPro/PAlib/lib\libpa9.a(PA_Draw.o)
PA_Keyboard_Struct  0x12              c:/devkitPro/PAlib/lib\libpa9.a(PA_Keyboard.o)
PA_VBLCounter       0x40              c:/devkitPro/PAlib/lib\libpa9.a(PA_Interrupt.o)
PA_parallaxY        0x20              c:/devkitPro/PAlib/lib\libpa9.a(PA_BgTiles.o)
used_mem            0x800             c:/devkitPro/PAlib/lib\libpa9.a(PA_Sprite.o)
fifo_value32_func   0x40              c:/devkitPro/libnds/lib\libnds9.a(fifosystem.o)
fifo_address_func   0x40              c:/devkitPro/libnds/lib\libnds9.a(fifosystem.o)
PA_parallaxX        0x20              c:/devkitPro/PAlib/lib\libpa9.a(PA_BgTiles.o)
PA_DrawBg32         0x8               c:/devkitPro/PAlib/lib\libpa9.a(PA_Draw.o)
pa_checklid         0x1               c:/devkitPro/PAlib/lib\libpa9.a(PA.o)
PA_RecoInfo         0x18              c:/devkitPro/PAlib/lib\libpa9.a(PA_Reco.o)
spriteanims         0x2400            c:/devkitPro/PAlib/lib\libpa9.a(PA_Sprite.o)
PA_SpriteAnimP      0x2000            c:/devkitPro/PAlib/lib\libpa9.a(PA_Sprite.o)
PA_IPC              0x198             c:/devkitPro/PAlib/lib\libpa9.a(PA.o)
Pad                 0x27              c:/devkitPro/PAlib/lib\libpa9.a(PA.o)
PA_TextBox          0x8               c:/devkitPro/PAlib/lib\libpa9.a(PA_Text.o)
PAbgtext            0x2               c:/devkitPro/PAlib/lib\libpa9.a(PA_Text.o)
tempsize            0x2               c:/devkitPro/PAlib/lib\libpa9.a(PA_BgTiles.o)
pa_printx           0x8               c:/devkitPro/PAlib/lib\libpa9.a(PA_Text.o)
pa_bittextpoliceheight
                    0xa               c:/devkitPro/PAlib/lib\libpa9.a(PA_TextBits.o)
Stylus              0x1c              c:/devkitPro/PAlib/lib\libpa9.a(PA.o)
PA_first            0x200             c:/devkitPro/PAlib/lib\libpa9.a(PA_Sprite.o)
pa_bittextsizes     0xa               c:/devkitPro/PAlib/lib\libpa9.a(PA_TextBits.o)
fifo_value32_data   0x40              c:/devkitPro/libnds/lib\libnds9.a(fifosystem.o)
charblocks          0x8c              c:/devkitPro/PAlib/lib\libpa9.a(PA_BgTiles.o)
PA_next             0x100             c:/devkitPro/PAlib/lib\libpa9.a(PA_Sprite.o)
PA_bgmap            0x20              c:/devkitPro/PAlib/lib\libpa9.a(PA.o)
PA_GifInfo          0x14              c:/devkitPro/PAlib/lib\libpa9.a(PA.o)
fifo_value32_queue  0x40              c:/devkitPro/libnds/lib\libnds9.a(fifosystem.o)
PA_StylusPos        0x9c40            c:/devkitPro/PAlib/lib\libpa9.a(PA_Reco.o)
fifo_data_queue     0x40              c:/devkitPro/libnds/lib\libnds9.a(fifosystem.o)
rotbg_size          0x8               c:/devkitPro/PAlib/lib\libpa9.a(PA_BgRot.o)
PA_VBLCounterOn     0x10              c:/devkitPro/PAlib/lib\libpa9.a(PA_Interrupt.o)
pa_printy           0x8               c:/devkitPro/PAlib/lib\libpa9.a(PA_Text.o)
PA_DrawBg           0x8               c:/devkitPro/PAlib/lib\libpa9.a(PA_Draw.o)
PA_oldx             0x4               c:/devkitPro/PAlib/lib\libpa9.a(PA_Draw.o)
textcol             0x4               c:/devkitPro/PAlib/lib\libpa9.a(PA_Text.o)
PA_drawsize         0x2               c:/devkitPro/PAlib/lib\libpa9.a(PA_Draw.o)
obj_per_gfx         0x800             c:/devkitPro/PAlib/lib\libpa9.a(PA_Sprite.o)
PA_CustomShape      0xd48             c:/devkitPro/PAlib/lib\libpa9.a(PA_Reco.o)
PA_RecoShape        0x10              c:/devkitPro/PAlib/lib\libpa9.a(PA_Reco.o)
pa_printscroll      0x4               c:/devkitPro/PAlib/lib\libpa9.a(PA_Text.o)
PA_oldy             0x4               c:/devkitPro/PAlib/lib\libpa9.a(PA_Draw.o)
PA_MovedSprite      0x10              c:/devkitPro/PAlib/lib\libpa9.a(PA.o)
PA_BgInfo           0x220             c:/devkitPro/PAlib/lib\libpa9.a(PA_BgTiles.o)
tempvar             0x2               c:/devkitPro/PAlib/lib\libpa9.a(PA_Draw.o)
punixTime           0x4               c:/devkitpro/devkitarm/bin/../lib/gcc/arm-none-eabi/4.7.1/../../../../arm-none-eabi/lib/thumb\libsysbase.a(times.o)
fifo_address_data   0x40              c:/devkitPro/libnds/lib\libnds9.a(fifosystem.o)
_PA_LidDown         0x1               c:/devkitPro/PAlib/lib\libpa9.a(PA_Keys.o)
PA_temppal          0x200             c:/devkitPro/PAlib/lib\libpa9.a(PA_Draw.o)
PA_UserInfo         0x52              c:/devkitPro/PAlib/lib\libpa9.a(PA_RTC.o)
scrollpos           0xe0              c:/devkitPro/PAlib/lib\libpa9.a(PA_BgTiles.o)
PA_obj              0x800             c:/devkitPro/PAlib/lib\libpa9.a(PA_Sprite.o)
DualSpriteX         0x100             c:/devkitPro/PAlib/lib\libpa9.a(PA_Sprite.o)
PA_textpal          0x8               c:/devkitPro/PAlib/lib\libpa9.a(PA_Text.o)
PA_nBit             0x2               c:/devkitPro/PAlib/lib\libpa9.a(PA_Draw.o)
fifo_datamsg_func   0x40              c:/devkitPro/libnds/lib\libnds9.a(fifosystem.o)
PA_Draw1632         0x8               c:/devkitPro/PAlib/lib\libpa9.a(PA_16c.o)
pa_obj_created      0x100             c:/devkitPro/PAlib/lib\libpa9.a(PA_Sprite.o)
fifo_address_queue  0x40              c:/devkitPro/libnds/lib\libnds9.a(fifosystem.o)
PA_textmap          0x8               c:/devkitPro/PAlib/lib\libpa9.a(PA_Text.o)
PA_ExtPal           0x4               c:/devkitPro/PAlib/lib\libpa9.a(PA_Palette.o)

Memory Configuration

Name             Origin             Length             Attributes
rom              0x08000000         0x02000000
ewram            0x02000000         0x003ff000
dtcm             0x0b000000         0x00004000
vectors          0x01000000         0x00000100
itcm             0x01000100         0x00007f00
*default*        0x00000000         0xffffffff

Linker script and memory map

                0x01000000                __vectors_start = ORIGIN (vectors)
                0x01000100                __itcm_start = ORIGIN (itcm)
                0x023ff000                __ewram_end = (ORIGIN (ewram) + 0x3ff000)
                0x023ff000                __eheap_end = (ORIGIN (ewram) + 0x3ff000)
                0x0b000000                __dtcm_start = ORIGIN (dtcm)
                0x0b004000                __dtcm_top = (ORIGIN (dtcm) + 0x4000)
                0x0b003ff8                __irq_flags = (__dtcm_top - 0x8)
                0x0b003ffc                __irq_vector = (__dtcm_top - 0x4)
                0x0b003f00                __sp_svc = (__dtcm_top - 0x100)
                0x0b003e00                __sp_irq = (__sp_svc - 0x100)
                0x0b003d00                __sp_usr = (__sp_irq - 0x100)

.init           0x02000000      0x23c
                0x02000000                __text_start = .
 *(.init)
 .init          0x02000000      0x230 c:/devkitpro/devkitarm/bin/../lib/gcc/arm-none-eabi/4.7.1/../../../../arm-none-eabi/lib/thumb/ds_arm9_crt0.o
                0x02000000                _start
 .init          0x02000230        0x4 c:/devkitpro/devkitarm/bin/../lib/gcc/arm-none-eabi/4.7.1/thumb/crti.o
                0x02000230                _init
 .init          0x02000234        0x8 c:/devkitpro/devkitarm/bin/../lib/gcc/arm-none-eabi/4.7.1/thumb/crtn.o
                0x0200023c                . = ALIGN (0x4)

.plt
 *(.plt)

.text           0x02000240    0x138c8
 *(EXCLUDE_FILE(*.itcm*) .text)
 .text          0x02000240        0x0 c:/devkitpro/devkitarm/bin/../lib/gcc/arm-none-eabi/4.7.1/../../../../arm-none-eabi/lib/thumb/ds_arm9_crt0.o
 .text          0x02000240        0x0 c:/devkitpro/devkitarm/bin/../lib/gcc/arm-none-eabi/4.7.1/thumb/crti.o
 .text          0x02000240       0xd0 c:/devkitpro/devkitarm/bin/../lib/gcc/arm-none-eabi/4.7.1/thumb/crtbegin.o
 .text          0x02000310        0x0 map_Map.o
 .text          0x02000310        0x0 map_Pal.o
 .text          0x02000310        0x0 map_Tiles.o
 .text          0x02000310        0x0 start_Map.o
 .text          0x02000310        0x0 start_Pal.o
 .text          0x02000310        0x0 start_Tiles.o
 .text          0x02000310        0x0 main.o
 .text          0x02000310       0xbc screen.o
                0x02000310                initScreen
                0x0200033c                readyScreen
 .text          0x020003cc        0x0 map.o
 .text          0x020003cc        0x0 start.o
 .text          0x020003cc      0x278 croutine.o
                0x020003cc                xCoRoutineCreate
                0x02000488                vCoRoutineAddToDelayedList
                0x020004c8                vCoRoutineSchedule
                0x0200060c                xCoRoutineRemoveFromEventList
 .text          0x02000644       0x98 list.o
                0x02000644                vListInitialise
                0x0200065c                vListInitialiseItem
                0x02000664                vListInsertEnd
                0x02000680                vListInsert
                0x020006b8                vListRemove
 .text          0x020006dc      0x4ec queue.o
                0x02000800                xQueueCreate
                0x02000860                xQueueGenericSend
                0x02000970                xQueueCreateMutex
                0x020009b4                xQueueGenericSendFromISR
                0x020009f8                xQueueGenericReceive
                0x02000b44                xQueueReceiveFromISR
                0x02000b88                uxQueueMessagesWaiting
                0x02000b9c                uxQueueMessagesWaitingFromISR
                0x02000ba0                vQueueDelete
                0x02000bb4                xQueueIsQueueEmptyFromISR
                0x02000bbc                xQueueIsQueueFullFromISR
 .text          0x02000bc8      0xba4 tasks.o
                0x02000c70                xTaskGenericCreate
                0x02000e10                vTaskDelete
                0x02000e7c                uxTaskPriorityGet
                0x02000e9c                vTaskPrioritySet
                0x02000f38                xTaskIsTaskSuspended
                0x02000f60                vTaskResume
                0x02000fc0                xTaskResumeFromISR
                0x02001030                vTaskStartScheduler
                0x02001074                vTaskEndScheduler
                0x0200108c                vTaskSuspendAll
                0x0200109c                xTaskGetTickCount
                0x020010b4                xTaskGetTickCountFromISR
                0x020010c0                uxTaskGetNumberOfTasks
                0x020010cc                vTaskStartTrace
                0x020010f0                ulTaskEndTrace
                0x0200110c                vTaskIncrementTick
                0x020011ac                xTaskResumeAll
                0x02001274                vTaskList
                0x0200139c                vTaskDelay
                0x020013f0                vTaskDelayUntil
                0x02001458                vTaskSwitchContext
                0x020014f8                vTaskSuspend
                0x02001568                vTaskPlaceOnEventList
                0x020015c4                xTaskRemoveFromEventList
                0x02001634                vTaskSetTimeOutState
                0x02001644                xTaskCheckForTimeOut
                0x020016a4                vTaskMissedYield
                0x020016b0                xTaskGetCurrentTaskHandle
                0x020016bc                vTaskPriorityInherit
                0x02001724                vTaskPriorityDisinherit
 .text          0x0200176c      0x364 card_spi.o
                0x0200176c                cardLineIrqHandler
                0x02001770                initSpi
                0x0200179c                cardSpiBusy
                0x020017ac                cardSpiStart
                0x020017d4                cardSpiStop
                0x020017ec                cardSpiInit
                0x02001814                cardSpiSetHandler
                0x02001848                cardSpiEnable
                0x02001870                cardSpiDisable
                0x02001894                cardSpiTransfer
                0x020018d4                cardSpiWriteBuffer
                0x0200197c                cardSpiTransferBuffer
                0x02001a0c                poll_spi
                0x02001a24                getDebugChar
                0x02001a68                putDebugChar
 .text          0x02001ad0      0xc88 gdbStub.o
                0x02001d78                getRegister
                0x0200269c                putRegister
                0x020026c4                getRegisterAsBytes
                0x020026fc                putRegisterAsBytes
                0x02002734                initDebug
                0x02002744                waitInput
 .text          0x02002758       0x30 heap_3.o
                0x02002758                pvPortMalloc
                0x02002770                vPortFree
 .text          0x02002788       0xd4 port.o
                0x02002788                pxPortInitialiseStack
                0x02002820                xPortStartScheduler
                0x02002858                vPortEndScheduler
 .text          0x0200285c       0x40 portISR.o
                0x0200285c                vPortISRStartFirstTask
                0x02002864                vPortEnterCritical
                0x02002878                vPortExitCritical
 *fill*         0x0200289c        0x4 ff
 .text          0x020028a0       0xf0 gdbStubAsm.o
                0x020028a0                BreakPoint
                0x020028a8                ICInvalidateAll
                0x020028b4                DCFlushAll
                0x020028e0                enable_IRQs
                0x020028ec                disable_IRQs
                0x020028f8                getSPSR
                0x02002900                setBankedReg
                0x02002924                setRegs
                0x0200292c                getPC
                0x02002934                test_func
                0x02002958                v5T_semantics_asm
                0x02002960                add
                0x02002970                mul
 .text          0x02002990      0x140 port_asm.o
                0x02002990                vPortDisableInterruptsFromThumb
                0x020029a8                vPortEnableInterruptsFromThumb
                0x020029c0                portRESTORE_CONTEXT_FIRST
                0x020029d8                portRESTORE_CONTEXT
                0x02002a10                vPreemptiveTick
                0x02002a6c                vPortYIELD
 .text          0x02002ad0       0xbc c:/devkitPro/PAlib/lib\libpa9.a(PA.o)
                0x02002ad0                PA_SetBrightness
                0x02002b10                PA_Nothing
                0x02002b14                PA_CheckLid
 .text          0x02002b8c      0x6f0 c:/devkitPro/PAlib/lib\libpa9.a(PA_BgTiles.o)
                0x02002b8c                PA_ReLoadBgTiles
                0x02002bd4                PA_InitBg
                0x02002cbc                PA_DeleteTiles
                0x02002d50                PA_LoadBgTilesEx
                0x02002f60                PA_DeleteMap
                0x02002fdc                PA_LoadBgMap
                0x02003158                PA_ResetBgSysScreen
                0x0200326c                PA_ResetBgSys
 .text          0x0200327c       0x84 c:/devkitPro/PAlib/lib\libpa9.a(PA_Error.o)
                0x0200327c                PA_Error
                0x0200329c                _PA_Assert
 .text          0x02003300      0x278 c:/devkitPro/PAlib/lib\libpa9.a(PA_Inits.o)
                0x02003300                PA_Init2D
                0x0200335c                PA_Init
 .text          0x02003578       0x78 c:/devkitPro/PAlib/lib\libpa9.a(PA_Interrupt.o)
                0x02003578                PA_VBLCountersReset
                0x02003598                PA_vblFunc
 .text          0x020035f0      0x2e0 c:/devkitPro/PAlib/lib\libpa9.a(PA_Keys.o)
                0x020035f0                PA_UpdatePad
                0x02003808                PA_UpdateStylus
 .text          0x020038d0      0x158 c:/devkitPro/PAlib/lib\libpa9.a(PA_Math.o)
                0x020038d0                PA_AdjustAngle
 .text          0x02003a28      0x824 c:/devkitPro/PAlib/lib\libpa9.a(PA_NewBg.o)
                0x02003a28                PA_LoadBackground
                0x02003f24                PA_LoadText
                0x02004058                PA_LoadKeyboard
                0x020041ac                PA_AddBitmapFont
                0x020041fc                PA_Add16cFont
 .text          0x0200424c      0x244 c:/devkitPro/PAlib/lib\libpa9.a(PA_Palette.o)
                0x0200424c                PA_LoadSpriteExtPal
                0x02004304                PA_InitSpriteExtPal
                0x0200435c                PA_LoadBgPalN
                0x0200442c                PA_InitBgExtPal
 .text          0x02004490       0xc4 c:/devkitPro/PAlib/lib\libpa9.a(PA_RTC.o)
                0x02004490                PA_UpdateUserInfo
                0x02004514                PA_UpdateRTC
 .text          0x02004554      0x4e4 c:/devkitPro/PAlib/lib\libpa9.a(PA_Reco.o)
                0x02004554                PA_StylusLine
                0x020046b4                PA_AnalyzeShape
                0x020049b4                PA_CheckLetter
 .text          0x02004a38      0x7dc c:/devkitPro/PAlib/lib\libpa9.a(PA_Sprite.o)
                0x02004a38                PA_InitSpriteExtPrio
                0x02004a6c                PA_ResetSpriteSysScreen
                0x02004bc0                PA_ResetSpriteSys
                0x02004bdc                PA_CreateGfx
                0x02004d38                PA_DeleteGfx
                0x02004ed4                PA_DeleteSprite
                0x02005028                PA_InitSpriteDraw
                0x02005088                PA_UpdateOAM
                0x020051dc                PA_UpdateSpriteVBL
 .text          0x02005214      0x1b4 c:/devkitPro/PAlib/lib\libpa9.a(PA_Stuff.o)
                0x02005214                PA_SetVideoMode
                0x02005238                PA_Locate
 .text          0x020053c8      0xa98 c:/devkitPro/PAlib/lib\libpa9.a(PA_Text.o)
                0x020053c8                PA_CreateTextPal
                0x02005474                PA_LoadDefaultText
                0x0200553c                PA_OutputSimpleText
                0x02005618                PA_OutputText
                0x02005db8                PA_ClearTextBg
 .text          0x02005e60     0x1230 c:/devkitPro/PAlib/lib\libpa9.a(PA_Text8bit.o)
                0x02005e60                NoLetter
                0x02005e64                Letter
                0x02006254                RotLetter2
                0x02006698                RotLetter
                0x02006ae0                TranspLetter
                0x02006f04                pa_8bitTextDecompress
                0x02006f7c                PA_8bitText
                0x0200702c                PA_CenterSmartText
 .text          0x02007090      0x428 c:/devkitPro/PAlib/lib\libpa9.a(PA_TextBits.o)
                0x02007090                PA_DoAlign
                0x020071e4                PA_DoLetterPos
 .text          0x020074b8        0x0 c:/devkitPro/PAlib/lib\libpa9.a(PA_TiledFont.o)
 .text          0x020074b8        0x0 c:/devkitPro/PAlib/lib\libpa9.a(PA_BmpFont0.o)
 .text          0x020074b8        0x0 c:/devkitPro/PAlib/lib\libpa9.a(PA_BmpFont1.o)
 .text          0x020074b8        0x0 c:/devkitPro/PAlib/lib\libpa9.a(PA_BmpFont2.o)
 .text          0x020074b8        0x0 c:/devkitPro/PAlib/lib\libpa9.a(PA_BmpFont3.o)
 .text          0x020074b8        0x0 c:/devkitPro/PAlib/lib\libpa9.a(PA_BmpFont4.o)
 .text          0x020074b8        0x0 c:/devkitPro/PAlib/lib\libpa9.a(PA_TiledFont_Map.bin.o)
 .text          0x020074b8        0x0 c:/devkitPro/PAlib/lib\libpa9.a(PA_TiledFont_Pal.bin.o)
 .text          0x020074b8        0x0 c:/devkitPro/PAlib/lib\libpa9.a(PA_TiledFont_Tiles.bin.o)
 .text          0x020074b8        0x0 c:/devkitPro/PAlib/lib\libpa9.a(PA_BmpFont0_Map.bin.o)
 .text          0x020074b8        0x0 c:/devkitPro/PAlib/lib\libpa9.a(PA_BmpFont0_Sizes.bin.o)
 .text          0x020074b8        0x0 c:/devkitPro/PAlib/lib\libpa9.a(PA_BmpFont0_Tiles.bin.o)
 .text          0x020074b8        0x0 c:/devkitPro/PAlib/lib\libpa9.a(PA_BmpFont1_Map.bin.o)
 .text          0x020074b8        0x0 c:/devkitPro/PAlib/lib\libpa9.a(PA_BmpFont1_Sizes.bin.o)
 .text          0x020074b8        0x0 c:/devkitPro/PAlib/lib\libpa9.a(PA_BmpFont1_Tiles.bin.o)
 .text          0x020074b8        0x0 c:/devkitPro/PAlib/lib\libpa9.a(PA_BmpFont2_Map.bin.o)
 .text          0x020074b8        0x0 c:/devkitPro/PAlib/lib\libpa9.a(PA_BmpFont2_Sizes.bin.o)
 .text          0x020074b8        0x0 c:/devkitPro/PAlib/lib\libpa9.a(PA_BmpFont2_Tiles.bin.o)
 .text          0x020074b8        0x0 c:/devkitPro/PAlib/lib\libpa9.a(PA_BmpFont3_Map.bin.o)
 .text          0x020074b8        0x0 c:/devkitPro/PAlib/lib\libpa9.a(PA_BmpFont3_Sizes.bin.o)
 .text          0x020074b8        0x0 c:/devkitPro/PAlib/lib\libpa9.a(PA_BmpFont3_Tiles.bin.o)
 .text          0x020074b8        0x0 c:/devkitPro/PAlib/lib\libpa9.a(PA_BmpFont4_Map.bin.o)
 .text          0x020074b8        0x0 c:/devkitPro/PAlib/lib\libpa9.a(PA_BmpFont4_Sizes.bin.o)
 .text          0x020074b8        0x0 c:/devkitPro/PAlib/lib\libpa9.a(PA_BmpFont4_Tiles.bin.o)
 .text          0x020074b8      0x6d0 c:/devkitPro/PAlib/lib\libpa9.a(PA_16c.o)
                0x020074b8                PA_16c8X8Color
                0x02007610                PA_Init16cBgEx
                0x020077b0                pa_16cTextDecompress
                0x0200783c                PA_16cText
                0x020079c0                PA_16cErase
                0x020079f8                PA_16cClearZone
 .text          0x02007b88      0x338 c:/devkitPro/PAlib/lib\libpa9.a(PA_BgEasy.o)
                0x02007b88                PA_EasyBgScrollX
                0x02007c14                PA_EasyBgScrollY
                0x02007ca0                PA_StoreEasyBgInfos
                0x02007cdc                PA_EasyBgLoadEx
 .text          0x02007ec0      0xccc c:/devkitPro/PAlib/lib\libpa9.a(PA_BgLargeMap.o)
                0x02007ec0                PA_LargeScrollXN
                0x0200807c                PA_LargeScrollYN
                0x0200822c                PA_InfLargeScrollXN
                0x02008410                PA_InfLargeScrollYN
                0x020085f8                PA_UpdateTileEngineX
                0x02008734                PA_UpdateTileEngineY
                0x0200886c                PA_InfTilesScrollX
                0x020088fc                PA_InfTilesScrollY
                0x0200898c                PA_InitLargeBg
 .text          0x02008b8c      0x188 c:/devkitPro/PAlib/lib\libpa9.a(PA_BgRot.o)
                0x02008b8c                PA_LoadRotBgMap
 .text          0x02008d14      0x2b4 c:/devkitPro/PAlib/lib\libpa9.a(PA_Draw.o)
                0x02008d14                PA_LoadBmpToBuffer
 .text          0x02008fc8       0x50 c:/devkitPro/PAlib/lib\libpa9.a(PA_Fifo.o)
                0x02008fc8                PA_FifoMsgHandler
                0x02009004                PA_InitFifo
 .text          0x02009018      0x604 c:/devkitPro/PAlib/lib\libpa9.a(PA_Keyboard.o)
                0x02009018                PA_ReloadKeyboardCol
                0x020090f8                PA_LoadDefaultKeyboard
                0x02009254                PA_ChangeKeyboardType
                0x020093d4                PA_SetLetterPal
                0x020094f4                PA_CheckKeyboard
 .text          0x0200961c      0x1e8 c:/devkitPro/PAlib/lib\libpa9.a(PA_PaletteEx.o)
                0x0200961c                PA_CreatePalBright
                0x020096e0                PA_CreatePalTransition
                0x02009748                PA_SetBgPalNCol
                0x02009798                PA_SetSpritePalCol
                0x020097e0                PA_3DSetSpritePalCol
 .text          0x02009804        0x0 c:/devkitPro/PAlib/lib\libpa9.a(keyboard.map.o)
 .text          0x02009804        0x0 c:/devkitPro/PAlib/lib\libpa9.a(keyboard.pal.o)
 .text          0x02009804        0x0 c:/devkitPro/PAlib/lib\libpa9.a(keyboard.raw.o)
 .text          0x02009804       0x28 c:/devkitPro/libnds/lib\libnds9.a(exceptions.o)
                0x02009804                setExceptionHandler
 .text          0x0200982c       0xf4 c:/devkitPro/libnds/lib\libnds9.a(keys.o)
                0x0200982c                scanKeys
                0x02009898                keysHeld
                0x020098a4                keysDown
                0x020098b4                keysDownRepeat
                0x020098c4                keysSetRepeat
                0x020098dc                keysUp
                0x020098ec                keysCurrent
 .text          0x02009920      0x128 c:/devkitPro/libnds/lib\libnds9.a(system.o)
                0x02009920                setSDcallback
                0x0200992c                systemMsgHandler
                0x02009970                systemSleep
                0x02009988                systemValueHandler
                0x020099c4                powerOn
                0x020099f0                powerOff
                0x02009a18                ledBlink
                0x02009a28                getBatteryLevel
 .text          0x02009a48       0x4c c:/devkitPro/libnds/lib\libnds9.a(touch.o)
                0x02009a48                touchRead
                0x02009a70                touchReadXY
 .text          0x02009a94      0x1f8 c:/devkitPro/libnds/lib\libnds9.a(video.o)
                0x02009a94                vramSetPrimaryBanks
                0x02009ad8                vramSetMainBanks
                0x02009b1c                vramSetBanks_EFG
                0x02009b54                vramRestorePrimaryBanks
                0x02009b60                vramRestoreMainBanks
                0x02009b6c                vramRestoreBanks_EFG
                0x02009b78                setBrightness
                0x02009bb8                vramDefault
 .text          0x02009c8c      0x140 c:/devkitPro/libnds/lib\libnds9.a(initSystem.o)
                0x02009c8c                initSystem
 .text          0x02009dcc      0xc58 c:/devkitPro/libnds/lib\libnds9.a(fifosystem.o)
                0x0200a020                fifoSendAddress
                0x0200a04c                fifoSendValue32
                0x0200a08c                fifoSendDatamsg
                0x0200a0fc                fifoGetAddress
                0x0200a174                fifoSetAddressHandler
                0x0200a1e8                fifoGetValue32
                0x0200a25c                fifoSetValue32Handler
                0x0200a2d0                fifoGetDatamsg
                0x0200a754                fifoSetDatamsgHandler
                0x0200a7ec                fifoCheckAddress
                0x0200a810                fifoCheckDatamsg
                0x0200a834                fifoCheckValue32
                0x0200a858                fifoInit
 .text          0x0200aa24      0x1ec c:/devkitPro/libnds/lib\libnds9.a(interrupts.o)
                0x0200aa24                irqDummy
                0x0200aa28                irqSet
                0x0200aa94                irqInit
                0x0200aae0                irqInitHandler
                0x0200ab10                irqEnable
                0x0200ab74                irqDisable
                0x0200abd8                irqClear
 .text          0x0200ac10       0x58 c:/devkitPro/libnds/lib\libnds9.a(libnds_exit.arm.o)
                0x0200ac10                systemErrorExit
                0x0200ac14                __libnds_exit
 .text          0x0200ac68       0x70 c:/devkitPro/libnds/lib\libnds9.a(dcache.o)
                0x0200ac68                DC_FlushAll
                0x0200ac94                DC_FlushRange
                0x0200acb0                DC_InvalidateAll
                0x0200acbc                DC_InvalidateRange
 .text          0x0200acd8       0xdc c:/devkitPro/libnds/lib\libnds9.a(exceptionHandler.o)
                0x0200acd8                getCPSR
                0x0200ace0                enterException
                0x0200ad54                exceptionC
                0x0200ad58                exceptionStack
                0x0200ad5c                exceptionRegisters
 .text          0x0200adb4      0x1b4 c:/devkitPro/libnds/lib\libnds9.a(mpu_setup.o)
                0x0200adb4                __libnds_mpu_setup
                0x0200aef4                memCached
                0x0200af0c                memUncached
 *fill*         0x0200af68        0x8 ff
 .text          0x0200af70       0x70 c:/devkitPro/libnds/lib\libnds9.a(biosCalls.o)
                0x0200af70                swiDelay
                0x0200af74                swiIntrWait
                0x0200af78                swiWaitForVBlank
                0x0200af7c                swiSleep
                0x0200af80                swiChangeSoundBias
                0x0200af84                swiDivide
                0x0200af88                swiRemainder
                0x0200af8e                swiDivMod
                0x0200af9a                swiCopy
                0x0200af9e                swiFastCopy
                0x0200afa2                swiSqrt
                0x0200afa6                swiCRC16
                0x0200afaa                swiIsDebugger
                0x0200afae                swiUnpackBits
                0x0200afb2                swiDecompressLZSSWram
                0x0200afb6                swiDecompressLZSSVramNTR
                0x0200afba                swiDecompressLZSSVramTWL
                0x0200afbe                swiDecompressHuffman
                0x0200afc2                swiDecompressRLEWram
                0x0200afc6                swiDecompressRLEVram
                0x0200afca                swiWaitForIRQ
                0x0200afce                swiDecodeDelta8
                0x0200afd2                swiDecodeDelta16
                0x0200afd6                swiSetHaltCR
 .text          0x0200afe0        0x0 c:/devkitPro/libnds/lib\libnds9.a(interruptDispatcher.o)
 .text          0x0200afe0       0x30 c:/devkitPro/libnds/lib\libnds9.a(swiSoftReset.o)
                0x0200afe0                swiSoftReset
 .text          0x0200b010      0x150 c:/devkitpro/devkitarm/bin/../lib/gcc/arm-none-eabi/4.7.1/thumb\libgcc.a(_divsi3.o)
                0x0200b010                __divsi3
                0x0200b010                __aeabi_idiv
                0x0200b140                __aeabi_idivmod
 .text          0x0200b160        0x4 c:/devkitpro/devkitarm/bin/../lib/gcc/arm-none-eabi/4.7.1/thumb\libgcc.a(_dvmd_tls.o)
                0x0200b160                __aeabi_idiv0
                0x0200b160                __aeabi_ldiv0
 .text          0x0200b164      0x41c c:/devkitpro/devkitarm/bin/../lib/gcc/arm-none-eabi/4.7.1/thumb\libgcc.a(_arm_addsubdf3.o)
                0x0200b164                __aeabi_drsub
                0x0200b16c                __aeabi_dsub
                0x0200b16c                __subdf3
                0x0200b170                __aeabi_dadd
                0x0200b170                __adddf3
                0x0200b480                __floatunsidf
                0x0200b480                __aeabi_ui2d
                0x0200b4a4                __floatsidf
                0x0200b4a4                __aeabi_i2d
                0x0200b4cc                __aeabi_f2d
                0x0200b4cc                __extendsfdf2
                0x0200b50c                __floatundidf
                0x0200b50c                __aeabi_ul2d
                0x0200b520                __floatdidf
                0x0200b520                __aeabi_l2d
 .text          0x0200b580      0x49c c:/devkitpro/devkitarm/bin/../lib/gcc/arm-none-eabi/4.7.1/thumb\libgcc.a(_arm_muldivdf3.o)
                0x0200b580                __aeabi_dmul
                0x0200b580                __muldf3
                0x0200b810                __divdf3
                0x0200b810                __aeabi_ddiv
 .text          0x0200ba1c      0x144 c:/devkitpro/devkitarm/bin/../lib/gcc/arm-none-eabi/4.7.1/thumb\libgcc.a(_arm_cmpdf2.o)
                0x0200ba1c                __gtdf2
                0x0200ba1c                __gedf2
                0x0200ba24                __ltdf2
                0x0200ba24                __ledf2
                0x0200ba2c                __nedf2
                0x0200ba2c                __eqdf2
                0x0200ba2c                __cmpdf2
                0x0200bab4                __aeabi_cdrcmple
                0x0200bad0                __aeabi_cdcmpeq
                0x0200bad0                __aeabi_cdcmple
                0x0200bae8                __aeabi_dcmpeq
                0x0200bb00                __aeabi_dcmplt
                0x0200bb18                __aeabi_dcmple
                0x0200bb30                __aeabi_dcmpge
                0x0200bb48                __aeabi_dcmpgt
 .text          0x0200bb60       0x5c c:/devkitpro/devkitarm/bin/../lib/gcc/arm-none-eabi/4.7.1/thumb\libgcc.a(_arm_fixdfsi.o)
                0x0200bb60                __aeabi_d2iz
                0x0200bb60                __fixdfsi
 .text          0x0200bbbc       0x4c c:/devkitpro/devkitarm/bin/../lib/gcc/arm-none-eabi/4.7.1/thumb\libgcc.a(_muldi3.o)
                0x0200bbbc                __muldi3
                0x0200bbbc                __aeabi_lmul
 .text          0x0200bc08       0x18 c:/devkitpro/devkitarm/bin/../lib/gcc/arm-none-eabi/4.7.1/../../../../arm-none-eabi/lib/thumb\libg.a(lib_a-gmtime.o)
                0x0200bc08                gmtime
 .text          0x0200bc20       0x10 c:/devkitpro/devkitarm/bin/../lib/gcc/arm-none-eabi/4.7.1/../../../../arm-none-eabi/lib/thumb\libg.a(lib_a-gmtime_r.o)
                0x0200bc20                gmtime_r
 .text          0x0200bc30        0x0 c:/devkitpro/devkitarm/bin/../lib/gcc/arm-none-eabi/4.7.1/../../../../arm-none-eabi/lib/thumb\libg.a(lib_a-impure.o)
 .text          0x0200bc30       0x54 c:/devkitpro/devkitarm/bin/../lib/gcc/arm-none-eabi/4.7.1/../../../../arm-none-eabi/lib/thumb\libg.a(lib_a-init.o)
                0x0200bc30                __libc_init_array
 .text          0x0200bc84      0x950 c:/devkitpro/devkitarm/bin/../lib/gcc/arm-none-eabi/4.7.1/../../../../arm-none-eabi/lib/thumb\libg.a(lib_a-locale.o)
                0x0200c378                _setlocale_r
                0x0200c574                __locale_charset
                0x0200c57c                __locale_mb_cur_max
                0x0200c588                __locale_msgcharset
                0x0200c594                __locale_cjk_lang
                0x0200c5a0                _localeconv_r
                0x0200c5ac                setlocale
                0x0200c5c8                localeconv
 .text          0x0200c5d4       0x30 c:/devkitpro/devkitarm/bin/../lib/gcc/arm-none-eabi/4.7.1/../../../../arm-none-eabi/lib/thumb\libg.a(lib_a-malloc.o)
                0x0200c5d4                malloc
                0x0200c5ec                free
 .text          0x0200c604      0x51c c:/devkitpro/devkitarm/bin/../lib/gcc/arm-none-eabi/4.7.1/../../../../arm-none-eabi/lib/thumb\libg.a(lib_a-mallocr.o)
                0x0200c604                _malloc_r
 .text          0x0200cb20      0x584 c:/devkitpro/devkitarm/bin/../lib/gcc/arm-none-eabi/4.7.1/../../../../arm-none-eabi/lib/thumb\libg.a(lib_a-mbtowc_r.o)
                0x0200cb20                __utf8_mbtowc
                0x0200cd80                _mbtowc_r
                0x0200cdbc                __ascii_mbtowc
                0x0200cdec                __sjis_mbtowc
                0x0200ceac                __eucjp_mbtowc
                0x0200cf74                __jis_mbtowc
 .text          0x0200d0a4       0x90 c:/devkitpro/devkitarm/bin/../lib/gcc/arm-none-eabi/4.7.1/../../../../arm-none-eabi/lib/thumb\libg.a(lib_a-memcpy-stub.o)
                0x0200d0a4                memcpy
 .text          0x0200d134       0x98 c:/devkitpro/devkitarm/bin/../lib/gcc/arm-none-eabi/4.7.1/../../../../arm-none-eabi/lib/thumb\libg.a(lib_a-memset.o)
                0x0200d134                memset
 .text          0x0200d1cc      0x498 c:/devkitpro/devkitarm/bin/../lib/gcc/arm-none-eabi/4.7.1/../../../../arm-none-eabi/lib/thumb\libg.a(lib_a-mktm_r.o)
                0x0200d1cc                __tzcalc_limits
                0x0200d368                _mktm_r
 .text          0x0200d664        0x8 c:/devkitpro/devkitarm/bin/../lib/gcc/arm-none-eabi/4.7.1/../../../../arm-none-eabi/lib/thumb\libg.a(lib_a-mlock.o)
                0x0200d664                __malloc_lock
                0x0200d668                __malloc_unlock
 .text          0x0200d66c       0x84 c:/devkitpro/devkitarm/bin/../lib/gcc/arm-none-eabi/4.7.1/../../../../arm-none-eabi/lib/thumb\libg.a(lib_a-sprintf.o)
                0x0200d66c                _sprintf_r
                0x0200d6ac                sprintf
 .text          0x0200d6f0       0x50 c:/devkitpro/devkitarm/bin/../lib/gcc/arm-none-eabi/4.7.1/../../../../arm-none-eabi/lib/thumb\libg.a(lib_a-strcasecmp.o)
                0x0200d6f0                strcasecmp
 .text          0x0200d740       0x50 c:/devkitpro/devkitarm/bin/../lib/gcc/arm-none-eabi/4.7.1/../../../../arm-none-eabi/lib/thumb\libg.a(lib_a-strcat.o)
                0x0200d740                strcat
 .text          0x0200d790       0xd4 c:/devkitpro/devkitarm/bin/../lib/gcc/arm-none-eabi/4.7.1/../../../../arm-none-eabi/lib/thumb\libg.a(lib_a-strchr.o)
                0x0200d790                strchr
 .text          0x0200d864       0x14 c:/devkitpro/devkitarm/bin/../lib/gcc/arm-none-eabi/4.7.1/../../../../arm-none-eabi/lib/thumb\libg.a(lib_a-strcmp.o)
                0x0200d864                strcmp
 .text          0x0200d878       0x10 c:/devkitpro/devkitarm/bin/../lib/gcc/arm-none-eabi/4.7.1/../../../../arm-none-eabi/lib/thumb\libg.a(lib_a-strcpy.o)
                0x0200d878                strcpy
 .text          0x0200d888       0x48 c:/devkitpro/devkitarm/bin/../lib/gcc/arm-none-eabi/4.7.1/../../../../arm-none-eabi/lib/thumb\libg.a(lib_a-strlcpy.o)
                0x0200d888                strlcpy
 .text          0x0200d8d0       0x10 c:/devkitpro/devkitarm/bin/../lib/gcc/arm-none-eabi/4.7.1/../../../../arm-none-eabi/lib/thumb\libg.a(lib_a-strlen.o)
                0x0200d8d0                strlen
 .text          0x0200d8e0       0x60 c:/devkitpro/devkitarm/bin/../lib/gcc/arm-none-eabi/4.7.1/../../../../arm-none-eabi/lib/thumb\libg.a(lib_a-strncasecmp.o)
                0x0200d8e0                strncasecmp
 .text          0x0200d940       0xbc c:/devkitpro/devkitarm/bin/../lib/gcc/arm-none-eabi/4.7.1/../../../../arm-none-eabi/lib/thumb\libg.a(lib_a-strncmp.o)
                0x0200d940                strncmp
 .text          0x0200d9fc       0x60 c:/devkitpro/devkitarm/bin/../lib/gcc/arm-none-eabi/4.7.1/../../../../arm-none-eabi/lib/thumb\libg.a(lib_a-strncpy.o)
                0x0200d9fc                strncpy
 .text          0x0200da5c      0x190 c:/devkitpro/devkitarm/bin/../lib/gcc/arm-none-eabi/4.7.1/../../../../arm-none-eabi/lib/thumb\libg.a(lib_a-strtol.o)
                0x0200da5c                _strtol_r
                0x0200dbcc                strtol
 *fill*         0x0200dbec        0x4 ff
 .text          0x0200dbf0     0x1728 c:/devkitpro/devkitarm/bin/../lib/gcc/arm-none-eabi/4.7.1/../../../../arm-none-eabi/lib/thumb\libg.a(lib_a-svfprintf.o)
                0x0200dbf0                _svfprintf_r
 .text          0x0200f318       0x1c c:/devkitpro/devkitarm/bin/../lib/gcc/arm-none-eabi/4.7.1/../../../../arm-none-eabi/lib/thumb\libg.a(lib_a-sysstat.o)
                0x0200f318                stat
 .text          0x0200f334       0x30 c:/devkitpro/devkitarm/bin/../lib/gcc/arm-none-eabi/4.7.1/../../../../arm-none-eabi/lib/thumb\libg.a(lib_a-time.o)
                0x0200f334                time
 .text          0x0200f364        0x8 c:/devkitpro/devkitarm/bin/../lib/gcc/arm-none-eabi/4.7.1/../../../../arm-none-eabi/lib/thumb\libg.a(lib_a-tzlock.o)
                0x0200f364                __tz_lock
                0x0200f368                __tz_unlock
 .text          0x0200f36c        0x0 c:/devkitpro/devkitarm/bin/../lib/gcc/arm-none-eabi/4.7.1/../../../../arm-none-eabi/lib/thumb\libg.a(lib_a-tzvars.o)
 .text          0x0200f36c       0xe8 c:/devkitpro/devkitarm/bin/../lib/gcc/arm-none-eabi/4.7.1/../../../../arm-none-eabi/lib/thumb\libg.a(lib_a-wcrtomb.o)
                0x0200f36c                _wcrtomb_r
                0x0200f3d4                wcrtomb
 .text          0x0200f454       0x40 c:/devkitpro/devkitarm/bin/../lib/gcc/arm-none-eabi/4.7.1/../../../../arm-none-eabi/lib/thumb\libg.a(lib_a-wcsrtombs.o)
                0x0200f454                _wcsrtombs_r
                0x0200f46c                wcsrtombs
 .text          0x0200f494      0x2a4 c:/devkitpro/devkitarm/bin/../lib/gcc/arm-none-eabi/4.7.1/../../../../arm-none-eabi/lib/thumb\libg.a(lib_a-wctomb_r.o)
                0x0200f494                __utf8_wctomb
                0x0200f548                _wctomb_r
                0x0200f580                __ascii_wctomb
                0x0200f5a0                __sjis_wctomb
                0x0200f61c                __eucjp_wctomb
                0x0200f6b8                __jis_wctomb
 .text          0x0200f738       0x10 c:/devkitpro/devkitarm/bin/../lib/gcc/arm-none-eabi/4.7.1/../../../../arm-none-eabi/lib/thumb\libg.a(lib_a-ctype_.o)
                0x0200f738                __set_ctype
 .text          0x0200f748     0x10a0 c:/devkitpro/devkitarm/bin/../lib/gcc/arm-none-eabi/4.7.1/../../../../arm-none-eabi/lib/thumb\libg.a(lib_a-dtoa.o)
                0x0200f8a0                _dtoa_r
 .text          0x020107e8      0x238 c:/devkitpro/devkitarm/bin/../lib/gcc/arm-none-eabi/4.7.1/../../../../arm-none-eabi/lib/thumb\libg.a(lib_a-freer.o)
                0x020107e8                _malloc_trim_r
                0x0201088c                _free_r
 .text          0x02010a20       0xa8 c:/devkitpro/devkitarm/bin/../lib/gcc/arm-none-eabi/4.7.1/../../../../arm-none-eabi/lib/thumb\libg.a(lib_a-getenv_r.o)
                0x02010a20                _findenv_r
                0x02010ab8                _getenv_r
 .text          0x02010ac8        0x8 c:/devkitpro/devkitarm/bin/../lib/gcc/arm-none-eabi/4.7.1/../../../../arm-none-eabi/lib/thumb\libg.a(lib_a-gettzinfo.o)
                0x02010ac8                __gettzinfo
 .text          0x02010ad0       0x98 c:/devkitpro/devkitarm/bin/../lib/gcc/arm-none-eabi/4.7.1/../../../../arm-none-eabi/lib/thumb\libg.a(lib_a-memchr-stub.o)
                0x02010ad0                memchr
 .text          0x02010b68      0x978 c:/devkitpro/devkitarm/bin/../lib/gcc/arm-none-eabi/4.7.1/../../../../arm-none-eabi/lib/thumb\libg.a(lib_a-mprec.o)
                0x02010b68                _Balloc
                0x02010bbc                _Bfree
                0x02010bd4                __multadd
                0x02010c80                __s2b
                0x02010d1c                __hi0bits
                0x02010d54                __lo0bits
                0x02010db4                __i2b
                0x02010dcc                __multiply
                0x02010f30                __pow5mult
                0x02010fe0                __lshift
                0x020110b0                __mcmp
                0x020110ec                __mdiff
                0x020111dc                __ulp
                0x02011224                __b2d
                0x020112c8                __d2b
                0x02011380                __ratio
                0x020113fc                _mprec_log10
                0x0201143c                __copybits
                0x02011484                __any_on
 .text          0x020114e0       0x5c c:/devkitpro/devkitarm/bin/../lib/gcc/arm-none-eabi/4.7.1/../../../../arm-none-eabi/lib/thumb\libg.a(lib_a-s_fpclassify.o)
                0x020114e0                __fpclassifyd
 .text          0x0201153c      0xeb4 c:/devkitpro/devkitarm/bin/../lib/gcc/arm-none-eabi/4.7.1/../../../../arm-none-eabi/lib/thumb\libg.a(lib_a-svfiprintf.o)
                0x0201153c                __ssprint_r
                0x0201166c                _svfiprintf_r
 .text          0x020123f0      0x150 c:/devkitpro/devkitarm/bin/../lib/gcc/arm-none-eabi/4.7.1/../../../../arm-none-eabi/lib/thumb\libg.a(lib_a-wcsnrtombs.o)
                0x020123f0                _wcsnrtombs_r
                0x02012510                wcsnrtombs
 .text          0x02012540       0x64 c:/devkitpro/devkitarm/bin/../lib/gcc/arm-none-eabi/4.7.1/../../../../arm-none-eabi/lib/thumb\libg.a(lib_a-callocr.o)
                0x02012540                _calloc_r
 .text          0x020125a4        0x0 c:/devkitpro/devkitarm/bin/../lib/gcc/arm-none-eabi/4.7.1/../../../../arm-none-eabi/lib/thumb\libg.a(lib_a-environ.o)
 .text          0x020125a4        0x8 c:/devkitpro/devkitarm/bin/../lib/gcc/arm-none-eabi/4.7.1/../../../../arm-none-eabi/lib/thumb\libg.a(lib_a-envlock.o)
                0x020125a4                __env_lock
                0x020125a8                __env_unlock
 .text          0x020125ac       0xb0 c:/devkitpro/devkitarm/bin/../lib/gcc/arm-none-eabi/4.7.1/../../../../arm-none-eabi/lib/thumb\libg.a(lib_a-memmove.o)
                0x020125ac                memmove
 .text          0x0201265c      0x3e8 c:/devkitpro/devkitarm/bin/../lib/gcc/arm-none-eabi/4.7.1/../../../../arm-none-eabi/lib/thumb\libg.a(lib_a-reallocr.o)
                0x0201265c                _realloc_r
 .text          0x02012a44       0x54 c:/devkitpro/devkitarm/bin/../lib/gcc/arm-none-eabi/4.7.1/../../../../arm-none-eabi/lib/thumb\libsysbase.a(sbrk.o)
                0x02012a44                _sbrk_r
 .text          0x02012a98       0x40 c:/devkitpro/devkitarm/bin/../lib/gcc/arm-none-eabi/4.7.1/../../../../arm-none-eabi/lib/thumb\libsysbase.a(stat.o)
                0x02012a98                _stat_r
 .text          0x02012ad8       0x44 c:/devkitpro/devkitarm/bin/../lib/gcc/arm-none-eabi/4.7.1/../../../../arm-none-eabi/lib/thumb\libsysbase.a(times.o)
                0x02012ad8                _times
                0x02012aec                _times_r
                0x02012af4                _gettimeofday_r
 .text          0x02012b1c        0x0 c:/devkitpro/devkitarm/bin/../lib/gcc/arm-none-eabi/4.7.1/../../../../arm-none-eabi/lib/thumb\libsysbase.a(malloc_vars.o)
 .text          0x02012b1c       0x4c c:/devkitpro/devkitarm/bin/../lib/gcc/arm-none-eabi/4.7.1/../../../../arm-none-eabi/lib/thumb\libsysbase.a(build_argv.o)
                0x02012b1c                build_argv
 .text          0x02012b68        0x0 c:/devkitpro/devkitarm/bin/../lib/gcc/arm-none-eabi/4.7.1/../../../../arm-none-eabi/lib/thumb\libsysbase.a(syscall_support.o)
 .text          0x02012b68      0x340 c:/devkitpro/devkitarm/bin/../lib/gcc/arm-none-eabi/4.7.1/../../../../arm-none-eabi/lib/thumb\libsysbase.a(dirent.o)
                0x02012be8                opendir
                0x02012c94                closedir
                0x02012cf4                readdir
                0x02012d98                readdir_r
                0x02012e24                rewinddir
                0x02012e3c                seekdir
                0x02012e90                telldir
 .text          0x02012ea8      0x144 c:/devkitpro/devkitarm/bin/../lib/gcc/arm-none-eabi/4.7.1/../../../../arm-none-eabi/lib/thumb\libsysbase.a(iosupport.o)
                0x02012ea8                setDefaultDevice
                0x02012ebc                FindDevice
                0x02012f2c                RemoveDevice
                0x02012f50                AddDevice
                0x02012fcc                GetDeviceOpTab
 .text          0x02012fec      0x11c c:/devkitpro/devkitarm/bin/../lib/gcc/arm-none-eabi/4.7.1/thumb\libgcc.a(_udivsi3.o)
                0x02012fec                __aeabi_uidiv
                0x02012fec                __udivsi3
                0x020130e8                __aeabi_uidivmod
 .text          0x02013108       0x3c c:/devkitpro/devkitarm/bin/../lib/gcc/arm-none-eabi/4.7.1/thumb\libgcc.a(_aeabi_uldivmod.o)
                0x02013108                __aeabi_uldivmod
 .text          0x02013144       0x7c c:/devkitpro/devkitarm/bin/../lib/gcc/arm-none-eabi/4.7.1/thumb\libgcc.a(bpabi.o)
                0x02013144                __gnu_ldivmod_helper
                0x02013184                __gnu_uldivmod_helper
 .text          0x020131c0      0x3d4 c:/devkitpro/devkitarm/bin/../lib/gcc/arm-none-eabi/4.7.1/thumb\libgcc.a(_divdi3.o)
                0x020131c0                __divdi3
 .text          0x02013594      0x3a0 c:/devkitpro/devkitarm/bin/../lib/gcc/arm-none-eabi/4.7.1/thumb\libgcc.a(_udivdi3.o)
                0x02013594                __udivdi3
 .text          0x02013934       0x48 c:/devkitpro/devkitarm/bin/../lib/gcc/arm-none-eabi/4.7.1/thumb\libgcc.a(_clzsi2.o)
                0x02013934                __clzsi2
 .text          0x0201397c        0xc c:/devkitpro/devkitarm/bin/../lib/gcc/arm-none-eabi/4.7.1/../../../../arm-none-eabi/lib/thumb\libg.a(lib_a-errno.o)
                0x0201397c                __errno
 .text          0x02013988       0x34 c:/devkitpro/devkitarm/bin/../lib/gcc/arm-none-eabi/4.7.1/../../../../arm-none-eabi/lib/thumb\libg.a(lib_a-strnlen.o)
                0x02013988                strnlen
 .text          0x020139bc        0x0 c:/devkitpro/devkitarm/bin/../lib/gcc/arm-none-eabi/4.7.1/thumb/crtend.o
 .text          0x020139bc        0x0 c:/devkitpro/devkitarm/bin/../lib/gcc/arm-none-eabi/4.7.1/thumb/crtn.o
 *(.text.*)
 .text.startup  0x020139bc       0x24 main.o
                0x020139bc                main
 .text.startup.stub
                0x020139e0      0x110 linker stubs
 *(.stub)
 *(.gnu.warning)
 *(.gnu.linkonce.t*)
 *(.glue_7)
 .glue_7        0x00000000        0x0 linker stubs
 *(.glue_7t)
 .glue_7t       0x00000000        0x0 linker stubs
                0x02013af0                . = ALIGN (0x4)

.vfp11_veneer   0x02013b08        0x0
 .vfp11_veneer  0x00000000        0x0 linker stubs

.v4_bx          0x02013b08        0x0
 .v4_bx         0x00000000        0x0 linker stubs

.iplt           0x02013b08        0x0
 .iplt          0x00000000        0x0 c:/devkitpro/devkitarm/bin/../lib/gcc/arm-none-eabi/4.7.1/../../../../arm-none-eabi/lib/thumb/ds_arm9_crt0.o

.fini           0x02013b08        0xc
 *(.fini)
 .fini          0x02013b08        0x4 c:/devkitpro/devkitarm/bin/../lib/gcc/arm-none-eabi/4.7.1/thumb/crti.o
                0x02013b08                _fini
 .fini          0x02013b0c        0x8 c:/devkitpro/devkitarm/bin/../lib/gcc/arm-none-eabi/4.7.1/thumb/crtn.o
                0x02013b14                __text_end = .

.rodata         0x02013b18    0x13b50
 *(.rodata)
 .rodata        0x02013b18      0x604 map_Map.o
                0x02013b18                map_Map
                0x02014118                map_Map_end
                0x02014118                map_Map_size
 .rodata        0x0201411c      0x204 map_Pal.o
                0x0201411c                map_Pal
                0x0201431c                map_Pal_end
                0x0201431c                map_Pal_size
 .rodata        0x02014320     0x2944 map_Tiles.o
                0x02014320                map_Tiles
                0x02016c60                map_Tiles_size
                0x02016c60                map_Tiles_end
 .rodata        0x02016c64      0x604 start_Map.o
                0x02016c64                start_Map
                0x02017264                start_Map_end
                0x02017264                start_Map_size
 .rodata        0x02017268      0x204 start_Pal.o
                0x02017268                start_Pal
                0x02017468                start_Pal_end
                0x02017468                start_Pal_size
 .rodata        0x0201746c     0x2d84 start_Tiles.o
                0x0201746c                start_Tiles
                0x0201a1ec                start_Tiles_size
                0x0201a1ec                start_Tiles_end
 .rodata        0x0201a1f0       0x20 map.o
                0x0201a1f0                map
 .rodata        0x0201a210       0x20 start.o
                0x0201a210                start
 .rodata        0x0201a230      0x198 gdbStub.o
 .rodata        0x0201a3c8       0x40 c:/devkitPro/PAlib/lib\libpa9.a(PA_Inits.o)
                0x0201a3c8                winfades
 .rodata        0x0201a408      0x400 c:/devkitPro/PAlib/lib\libpa9.a(PA_Math.o)
                0x0201a408                PA_SIN
 .rodata        0x0201a808       0x30 c:/devkitPro/PAlib/lib\libpa9.a(PA_Sprite.o)
                0x0201a808                PA_obj_sizes
                0x0201a820                PA_size
 .rodata        0x0201a838       0x20 c:/devkitPro/PAlib/lib\libpa9.a(PA_TiledFont.o)
                0x0201a838                PA_TiledFont
 .rodata        0x0201a858       0x20 c:/devkitPro/PAlib/lib\libpa9.a(PA_BmpFont0.o)
                0x0201a858                PA_BmpFont0
 .rodata        0x0201a878       0x20 c:/devkitPro/PAlib/lib\libpa9.a(PA_BmpFont1.o)
                0x0201a878                PA_BmpFont1
 .rodata        0x0201a898       0x20 c:/devkitPro/PAlib/lib\libpa9.a(PA_BmpFont2.o)
                0x0201a898                PA_BmpFont2
 .rodata        0x0201a8b8       0x20 c:/devkitPro/PAlib/lib\libpa9.a(PA_BmpFont3.o)
                0x0201a8b8                PA_BmpFont3
 .rodata        0x0201a8d8       0x20 c:/devkitPro/PAlib/lib\libpa9.a(PA_BmpFont4.o)
                0x0201a8d8                PA_BmpFont4
 .rodata        0x0201a8f8      0x604 c:/devkitPro/PAlib/lib\libpa9.a(PA_TiledFont_Map.bin.o)
                0x0201a8f8                PA_TiledFont_Map
                0x0201aef8                PA_TiledFont_Map_size
                0x0201aef8                PA_TiledFont_Map_end
 .rodata        0x0201aefc      0x204 c:/devkitPro/PAlib/lib\libpa9.a(PA_TiledFont_Pal.bin.o)
                0x0201aefc                PA_TiledFont_Pal
                0x0201b0fc                PA_TiledFont_Pal_end
                0x0201b0fc                PA_TiledFont_Pal_size
 .rodata        0x0201b100     0x33c4 c:/devkitPro/PAlib/lib\libpa9.a(PA_TiledFont_Tiles.bin.o)
                0x0201b100                PA_TiledFont_Tiles
                0x0201e4c0                PA_TiledFont_Tiles_size
                0x0201e4c0                PA_TiledFont_Tiles_end
 .rodata        0x0201e4c4      0x204 c:/devkitPro/PAlib/lib\libpa9.a(PA_BmpFont0_Map.bin.o)
                0x0201e4c4                PA_BmpFont0_Map
                0x0201e6c4                PA_BmpFont0_Map_end
                0x0201e6c4                PA_BmpFont0_Map_size
 .rodata        0x0201e6c8      0x104 c:/devkitPro/PAlib/lib\libpa9.a(PA_BmpFont0_Sizes.bin.o)
                0x0201e6c8                PA_BmpFont0_Sizes
                0x0201e7c8                PA_BmpFont0_Sizes_size
                0x0201e7c8                PA_BmpFont0_Sizes_end
 .rodata        0x0201e7cc      0x324 c:/devkitPro/PAlib/lib\libpa9.a(PA_BmpFont0_Tiles.bin.o)
                0x0201e7cc                PA_BmpFont0_Tiles
                0x0201eaec                PA_BmpFont0_Tiles_size
                0x0201eaec                PA_BmpFont0_Tiles_end
 .rodata        0x0201eaf0      0x204 c:/devkitPro/PAlib/lib\libpa9.a(PA_BmpFont1_Map.bin.o)
                0x0201eaf0                PA_BmpFont1_Map
                0x0201ecf0                PA_BmpFont1_Map_end
                0x0201ecf0                PA_BmpFont1_Map_size
 .rodata        0x0201ecf4      0x104 c:/devkitPro/PAlib/lib\libpa9.a(PA_BmpFont1_Sizes.bin.o)
                0x0201ecf4                PA_BmpFont1_Sizes
                0x0201edf4                PA_BmpFont1_Sizes_size
                0x0201edf4                PA_BmpFont1_Sizes_end
 .rodata        0x0201edf8      0x34c c:/devkitPro/PAlib/lib\libpa9.a(PA_BmpFont1_Tiles.bin.o)
                0x0201edf8                PA_BmpFont1_Tiles
                0x0201f140                PA_BmpFont1_Tiles_end
                0x0201f140                PA_BmpFont1_Tiles_size
 .rodata        0x0201f144      0x804 c:/devkitPro/PAlib/lib\libpa9.a(PA_BmpFont2_Map.bin.o)
                0x0201f144                PA_BmpFont2_Map
                0x0201f944                PA_BmpFont2_Map_size
                0x0201f944                PA_BmpFont2_Map_end
 .rodata        0x0201f948      0x104 c:/devkitPro/PAlib/lib\libpa9.a(PA_BmpFont2_Sizes.bin.o)
                0x0201f948                PA_BmpFont2_Sizes
                0x0201fa48                PA_BmpFont2_Sizes_end
                0x0201fa48                PA_BmpFont2_Sizes_size
 .rodata        0x0201fa4c      0x39c c:/devkitPro/PAlib/lib\libpa9.a(PA_BmpFont2_Tiles.bin.o)
                0x0201fa4c                PA_BmpFont2_Tiles
                0x0201fde4                PA_BmpFont2_Tiles_size
                0x0201fde4                PA_BmpFont2_Tiles_end
 .rodata        0x0201fde8      0x804 c:/devkitPro/PAlib/lib\libpa9.a(PA_BmpFont3_Map.bin.o)
                0x0201fde8                PA_BmpFont3_Map
                0x020205e8                PA_BmpFont3_Map_end
                0x020205e8                PA_BmpFont3_Map_size
 .rodata        0x020205ec      0x104 c:/devkitPro/PAlib/lib\libpa9.a(PA_BmpFont3_Sizes.bin.o)
                0x020205ec                PA_BmpFont3_Sizes
                0x020206ec                PA_BmpFont3_Sizes_end
                0x020206ec                PA_BmpFont3_Sizes_size
 .rodata        0x020206f0      0x624 c:/devkitPro/PAlib/lib\libpa9.a(PA_BmpFont3_Tiles.bin.o)
                0x020206f0                PA_BmpFont3_Tiles
                0x02020d10                PA_BmpFont3_Tiles_end
                0x02020d10                PA_BmpFont3_Tiles_size
 .rodata        0x02020d14      0x804 c:/devkitPro/PAlib/lib\libpa9.a(PA_BmpFont4_Map.bin.o)
                0x02020d14                PA_BmpFont4_Map
                0x02021514                PA_BmpFont4_Map_size
                0x02021514                PA_BmpFont4_Map_end
 .rodata        0x02021518      0x104 c:/devkitPro/PAlib/lib\libpa9.a(PA_BmpFont4_Sizes.bin.o)
                0x02021518                PA_BmpFont4_Sizes
                0x02021618                PA_BmpFont4_Sizes_end
                0x02021618                PA_BmpFont4_Sizes_size
 .rodata        0x0202161c      0x834 c:/devkitPro/PAlib/lib\libpa9.a(PA_BmpFont4_Tiles.bin.o)
                0x0202161c                PA_BmpFont4_Tiles
                0x02021e4c                PA_BmpFont4_Tiles_size
                0x02021e4c                PA_BmpFont4_Tiles_end
 .rodata        0x02021e50       0xf0 c:/devkitPro/PAlib/lib\libpa9.a(PA_Keyboard.o)
                0x02021e50                PA_Keyboard
 .rodata        0x02021f40     0x2000 c:/devkitPro/PAlib/lib\libpa9.a(keyboard.map.o)
                0x02021f40                keyboard_Map
 .rodata        0x02023f40       0x20 c:/devkitPro/PAlib/lib\libpa9.a(keyboard.pal.o)
                0x02023f40                keyboard_Palette
 .rodata        0x02023f60     0x28a0 c:/devkitPro/PAlib/lib\libpa9.a(keyboard.raw.o)
                0x02023f60                keyboard_Tiles
 .rodata        0x02026800        0x4 c:/devkitpro/devkitarm/bin/../lib/gcc/arm-none-eabi/4.7.1/../../../../arm-none-eabi/lib/thumb\libg.a(lib_a-impure.o)
                0x02026800                _global_impure_ptr
 .rodata        0x02026804       0xf0 c:/devkitpro/devkitarm/bin/../lib/gcc/arm-none-eabi/4.7.1/../../../../arm-none-eabi/lib/thumb\libg.a(lib_a-locale.o)
 .rodata        0x020268f4       0xa8 c:/devkitpro/devkitarm/bin/../lib/gcc/arm-none-eabi/4.7.1/../../../../arm-none-eabi/lib/thumb\libg.a(lib_a-mbtowc_r.o)
 .rodata        0x0202699c       0x68 c:/devkitpro/devkitarm/bin/../lib/gcc/arm-none-eabi/4.7.1/../../../../arm-none-eabi/lib/thumb\libg.a(lib_a-mktm_r.o)
 .rodata        0x02026a04      0x184 c:/devkitpro/devkitarm/bin/../lib/gcc/arm-none-eabi/4.7.1/../../../../arm-none-eabi/lib/thumb\libg.a(lib_a-svfprintf.o)
 .rodata        0x02026b88      0x104 c:/devkitpro/devkitarm/bin/../lib/gcc/arm-none-eabi/4.7.1/../../../../arm-none-eabi/lib/thumb\libg.a(lib_a-ctype_.o)
                0x02026b88                _ctype_
 *fill*         0x02026c8c        0x4 ff
 .rodata        0x02026c90      0x128 c:/devkitpro/devkitarm/bin/../lib/gcc/arm-none-eabi/4.7.1/../../../../arm-none-eabi/lib/thumb\libg.a(lib_a-mprec.o)
                0x02026ca0                __mprec_tens
                0x02026d68                __mprec_tinytens
                0x02026d90                __mprec_bigtens
 .rodata        0x02026db8      0x184 c:/devkitpro/devkitarm/bin/../lib/gcc/arm-none-eabi/4.7.1/../../../../arm-none-eabi/lib/thumb\libg.a(lib_a-svfiprintf.o)
 .rodata        0x02026f3c       0x64 c:/devkitpro/devkitarm/bin/../lib/gcc/arm-none-eabi/4.7.1/../../../../arm-none-eabi/lib/thumb\libsysbase.a(iosupport.o)
                0x02026f3c                dotab_stdnull
 *all.rodata*(*)
 *(.roda)
 *(.rodata.*)
 .rodata.str1.4
                0x02026fa0       0x1f tasks.o
                                 0x20 (size before relaxing)
 *fill*         0x02026fbf        0x1 ff
 .rodata.str1.4
                0x02026fc0        0x3 gdbStub.o
                                  0x4 (size before relaxing)
 *fill*         0x02026fc3        0x1 ff
 .rodata.str1.4
                0x02026fc4      0x18f c:/devkitPro/PAlib/lib\libpa9.a(PA_BgTiles.o)
                                0x190 (size before relaxing)
 *fill*         0x02027153        0x1 ff
 .rodata.str1.4
                0x02027154       0x26 c:/devkitPro/PAlib/lib\libpa9.a(PA_Error.o)
                                 0x28 (size before relaxing)
 *fill*         0x0202717a        0x2 ff
 .rodata.str1.4
                0x0202717c        0x2 c:/devkitPro/PAlib/lib\libpa9.a(PA_Inits.o)
                                  0x4 (size before relaxing)
 *fill*         0x0202717e        0x2 ff
 .rodata.str1.4
                0x02027180      0x128 c:/devkitPro/PAlib/lib\libpa9.a(PA_NewBg.o)
 .rodata.str1.4
                0x020272a8      0x234 c:/devkitPro/PAlib/lib\libpa9.a(PA_Sprite.o)
 .rodata.str1.4
                0x020274dc        0xa c:/devkitPro/PAlib/lib\libpa9.a(PA_Stuff.o)
                                  0xc (size before relaxing)
 .rodata.str1.4
                0x00000000        0x4 c:/devkitpro/devkitarm/bin/../lib/gcc/arm-none-eabi/4.7.1/../../../../arm-none-eabi/lib/thumb\libg.a(lib_a-impure.o)
 *fill*         0x020274e6        0x2 ff
 .rodata.str1.4
                0x020274e8      0x120 c:/devkitpro/devkitarm/bin/../lib/gcc/arm-none-eabi/4.7.1/../../../../arm-none-eabi/lib/thumb\libg.a(lib_a-locale.o)
                                0x130 (size before relaxing)
 .rodata.str1.4
                0x02027608       0x42 c:/devkitpro/devkitarm/bin/../lib/gcc/arm-none-eabi/4.7.1/../../../../arm-none-eabi/lib/thumb\libg.a(lib_a-svfprintf.o)
                                 0x44 (size before relaxing)
 *fill*         0x0202764a        0x2 ff
 .rodata.str1.4
                0x0202764c        0x4 c:/devkitpro/devkitarm/bin/../lib/gcc/arm-none-eabi/4.7.1/../../../../arm-none-eabi/lib/thumb\libg.a(lib_a-tzvars.o)
 .rodata.str1.4
                0x02027650       0x10 c:/devkitpro/devkitarm/bin/../lib/gcc/arm-none-eabi/4.7.1/../../../../arm-none-eabi/lib/thumb\libg.a(lib_a-dtoa.o)
                                 0x14 (size before relaxing)
 .rodata.str1.4
                0x00000000       0x30 c:/devkitpro/devkitarm/bin/../lib/gcc/arm-none-eabi/4.7.1/../../../../arm-none-eabi/lib/thumb\libg.a(lib_a-svfiprintf.o)
 .rodata.str1.4
                0x02027660        0x8 c:/devkitpro/devkitarm/bin/../lib/gcc/arm-none-eabi/4.7.1/../../../../arm-none-eabi/lib/thumb\libsysbase.a(iosupport.o)
 *(.gnu.linkonce.r*)
                0x02027668                . = ALIGN (0x4)

.rel.dyn        0x02027668        0x0
 .rel.iplt      0x00000000        0x0 c:/devkitpro/devkitarm/bin/../lib/gcc/arm-none-eabi/4.7.1/../../../../arm-none-eabi/lib/thumb/ds_arm9_crt0.o

.ARM.extab
 *(.ARM.extab* .gnu.linkonce.armextab.*)
                0x02027668                __exidx_start = .

ARM.exidx
 *(.ARM.exidx* .gnu.linkonce.armexidx.*)
                0x02027668                __exidx_end = .
                0x02027668                . = ALIGN (0x4)
                0x02027668                PROVIDE (__preinit_array_start, .)

.preinit_array
 *(.preinit_array)
                0x02027668                PROVIDE (__preinit_array_end, .)
                0x02027668                PROVIDE (__init_array_start, .)

.init_array     0x02027668        0x4
 *(SORT(.init_array.*))
 *(.init_array)
 .init_array    0x02027668        0x4 c:/devkitpro/devkitarm/bin/../lib/gcc/arm-none-eabi/4.7.1/thumb/crtbegin.o
                0x0202766c                PROVIDE (__init_array_end, .)
                0x0202766c                PROVIDE (__fini_array_start, .)

.fini_array     0x0202766c        0x4
 *(.fini_array)
 .fini_array    0x0202766c        0x4 c:/devkitpro/devkitarm/bin/../lib/gcc/arm-none-eabi/4.7.1/thumb/crtbegin.o
 *(SORT(.fini_array.*))
                0x02027670                PROVIDE (__fini_array_end, .)

.ctors          0x02027670        0x0
 *crtbegin.o(.ctors)
 *(EXCLUDE_FILE(*crtend.o) .ctors)
 *(SORT(.ctors.*))
 *(.ctors)
                0x02027670                . = ALIGN (0x4)

.dtors          0x02027670        0x0
 *crtbegin.o(.dtors)
 *(EXCLUDE_FILE(*crtend.o) .dtors)
 *(SORT(.dtors.*))
 *(.dtors)
                0x02027670                . = ALIGN (0x4)

.eh_frame       0x02027670        0x4
 *(.eh_frame)
 .eh_frame      0x02027670        0x0 c:/devkitpro/devkitarm/bin/../lib/gcc/arm-none-eabi/4.7.1/thumb/crtbegin.o
 .eh_frame      0x02027670        0x4 c:/devkitpro/devkitarm/bin/../lib/gcc/arm-none-eabi/4.7.1/thumb/crtend.o
                0x02027674                . = ALIGN (0x4)

.gcc_except_table
                0x02027674        0x0
 *(.gcc_except_table)
                0x02027674                . = ALIGN (0x4)

.jcr            0x02027674        0x4
 *(.jcr)
 .jcr           0x02027674        0x0 c:/devkitpro/devkitarm/bin/../lib/gcc/arm-none-eabi/4.7.1/thumb/crtbegin.o
 .jcr           0x02027674        0x4 c:/devkitpro/devkitarm/bin/../lib/gcc/arm-none-eabi/4.7.1/thumb/crtend.o

.got
 *(.got.plt)
 *(.got)
 *(.rel.got)

.ewram          0x02027678        0x0
                0x02027678                __ewram_start = ABSOLUTE (.)
 *(.ewram)
 *ewram.*(.text)
                0x02027678                . = ALIGN (0x4)

.data           0x02027678      0xd98
                0x02027678                __data_start = ABSOLUTE (.)
 *(.data)
 .data          0x02027678        0x0 c:/devkitpro/devkitarm/bin/../lib/gcc/arm-none-eabi/4.7.1/../../../../arm-none-eabi/lib/thumb/ds_arm9_crt0.o
 .data          0x02027678        0x0 c:/devkitpro/devkitarm/bin/../lib/gcc/arm-none-eabi/4.7.1/thumb/crti.o
 .data          0x02027678        0x4 c:/devkitpro/devkitarm/bin/../lib/gcc/arm-none-eabi/4.7.1/thumb/crtbegin.o
                0x02027678                __dso_handle
 .data          0x0202767c        0x0 map_Map.o
 .data          0x0202767c        0x0 map_Pal.o
 .data          0x0202767c        0x0 map_Tiles.o
 .data          0x0202767c        0x0 start_Map.o
 .data          0x0202767c        0x0 start_Pal.o
 .data          0x0202767c        0x0 start_Tiles.o
 .data          0x0202767c        0x0 main.o
 .data          0x0202767c        0x0 screen.o
 .data          0x0202767c        0x0 map.o
 .data          0x0202767c        0x0 start.o
 .data          0x0202767c        0x0 croutine.o
 .data          0x0202767c        0x0 list.o
 .data          0x0202767c        0x0 queue.o
 .data          0x0202767c        0x4 tasks.o
 .data          0x02027680        0x0 card_spi.o
 .data          0x02027680        0x4 gdbStub.o
                0x02027680                pRegisters
 .data          0x02027684        0x0 heap_3.o
 .data          0x02027684        0x0 port.o
 .data          0x02027684        0x4 portISR.o
                0x02027684                ulCriticalNesting
 .data          0x02027688        0x0 gdbStubAsm.o
 .data          0x02027688        0x0 port_asm.o
 .data          0x02027688        0x0 c:/devkitPro/PAlib/lib\libpa9.a(PA.o)
 .data          0x02027688       0x10 c:/devkitPro/PAlib/lib\libpa9.a(PA_BgTiles.o)
                0x02027688                charsetstart
                0x0202768c                bg_place
                0x02027690                bg_sizes
 .data          0x02027698        0x0 c:/devkitPro/PAlib/lib\libpa9.a(PA_Error.o)
 .data          0x02027698        0x0 c:/devkitPro/PAlib/lib\libpa9.a(PA_Inits.o)
 .data          0x02027698       0x14 c:/devkitPro/PAlib/lib\libpa9.a(PA_Interrupt.o)
                0x02027698                SpriteVBL
                0x0202769c                MotionVBL
                0x020276a0                GHPadVBL
                0x020276a4                PaddleVBL
                0x020276a8                CustomVBL
 .data          0x020276ac        0x0 c:/devkitPro/PAlib/lib\libpa9.a(PA_Keys.o)
 .data          0x020276ac        0x4 c:/devkitPro/PAlib/lib\libpa9.a(PA_Math.o)
                0x020276ac                RandomValue
 .data          0x020276b0        0x0 c:/devkitPro/PAlib/lib\libpa9.a(PA_NewBg.o)
 .data          0x020276b0        0x0 c:/devkitPro/PAlib/lib\libpa9.a(PA_Palette.o)
 .data          0x020276b0        0x0 c:/devkitPro/PAlib/lib\libpa9.a(PA_RTC.o)
 .data          0x020276b0      0x204 c:/devkitPro/PAlib/lib\libpa9.a(PA_Reco.o)
                0x020276b0                PA_UseGraffiti
                0x020276b4                PA_Graffiti
 .data          0x020278b4        0x4 c:/devkitPro/PAlib/lib\libpa9.a(PA_Sprite.o)
                0x020278b4                VBLSpriteAnims
 .data          0x020278b8        0x0 c:/devkitPro/PAlib/lib\libpa9.a(PA_Stuff.o)
 .data          0x020278b8        0x0 c:/devkitPro/PAlib/lib\libpa9.a(PA_Text.o)
 .data          0x020278b8       0x3c c:/devkitPro/PAlib/lib\libpa9.a(PA_Text8bit.o)
                0x020278b8                bit8_tiles
                0x020278e0                letters
 .data          0x020278f4       0x7c c:/devkitPro/PAlib/lib\libpa9.a(PA_TextBits.o)
                0x020278f4                textinfo
                0x020278f8                pa_bittextdefaultsize
                0x02027920                bittext_maps
                0x02027948                bittext_tiles_blank
 .data          0x02027970        0x0 c:/devkitPro/PAlib/lib\libpa9.a(PA_TiledFont.o)
 .data          0x02027970        0x0 c:/devkitPro/PAlib/lib\libpa9.a(PA_BmpFont0.o)
 .data          0x02027970        0x0 c:/devkitPro/PAlib/lib\libpa9.a(PA_BmpFont1.o)
 .data          0x02027970        0x0 c:/devkitPro/PAlib/lib\libpa9.a(PA_BmpFont2.o)
 .data          0x02027970        0x0 c:/devkitPro/PAlib/lib\libpa9.a(PA_BmpFont3.o)
 .data          0x02027970        0x0 c:/devkitPro/PAlib/lib\libpa9.a(PA_BmpFont4.o)
 .data          0x02027970        0x0 c:/devkitPro/PAlib/lib\libpa9.a(PA_TiledFont_Map.bin.o)
 .data          0x02027970        0x0 c:/devkitPro/PAlib/lib\libpa9.a(PA_TiledFont_Pal.bin.o)
 .data          0x02027970        0x0 c:/devkitPro/PAlib/lib\libpa9.a(PA_TiledFont_Tiles.bin.o)
 .data          0x02027970        0x0 c:/devkitPro/PAlib/lib\libpa9.a(PA_BmpFont0_Map.bin.o)
 .data          0x02027970        0x0 c:/devkitPro/PAlib/lib\libpa9.a(PA_BmpFont0_Sizes.bin.o)
 .data          0x02027970        0x0 c:/devkitPro/PAlib/lib\libpa9.a(PA_BmpFont0_Tiles.bin.o)
 .data          0x02027970        0x0 c:/devkitPro/PAlib/lib\libpa9.a(PA_BmpFont1_Map.bin.o)
 .data          0x02027970        0x0 c:/devkitPro/PAlib/lib\libpa9.a(PA_BmpFont1_Sizes.bin.o)
 .data          0x02027970        0x0 c:/devkitPro/PAlib/lib\libpa9.a(PA_BmpFont1_Tiles.bin.o)
 .data          0x02027970        0x0 c:/devkitPro/PAlib/lib\libpa9.a(PA_BmpFont2_Map.bin.o)
 .data          0x02027970        0x0 c:/devkitPro/PAlib/lib\libpa9.a(PA_BmpFont2_Sizes.bin.o)
 .data          0x02027970        0x0 c:/devkitPro/PAlib/lib\libpa9.a(PA_BmpFont2_Tiles.bin.o)
 .data          0x02027970        0x0 c:/devkitPro/PAlib/lib\libpa9.a(PA_BmpFont3_Map.bin.o)
 .data          0x02027970        0x0 c:/devkitPro/PAlib/lib\libpa9.a(PA_BmpFont3_Sizes.bin.o)
 .data          0x02027970        0x0 c:/devkitPro/PAlib/lib\libpa9.a(PA_BmpFont3_Tiles.bin.o)
 .data          0x02027970        0x0 c:/devkitPro/PAlib/lib\libpa9.a(PA_BmpFont4_Map.bin.o)
 .data          0x02027970        0x0 c:/devkitPro/PAlib/lib\libpa9.a(PA_BmpFont4_Sizes.bin.o)
 .data          0x02027970        0x0 c:/devkitPro/PAlib/lib\libpa9.a(PA_BmpFont4_Tiles.bin.o)
 .data          0x02027970       0x28 c:/devkitPro/PAlib/lib\libpa9.a(PA_16c.o)
                0x02027970                c16_tiles
 .data          0x02027998        0x0 c:/devkitPro/PAlib/lib\libpa9.a(PA_BgEasy.o)
 .data          0x02027998        0x0 c:/devkitPro/PAlib/lib\libpa9.a(PA_BgLargeMap.o)
 .data          0x02027998        0xc c:/devkitPro/PAlib/lib\libpa9.a(PA_BgRot.o)
                0x02027998                rotbg_place
                0x0202799c                rotbg_sizes
 .data          0x020279a4        0x0 c:/devkitPro/PAlib/lib\libpa9.a(PA_Draw.o)
 .data          0x020279a4        0x0 c:/devkitPro/PAlib/lib\libpa9.a(PA_Fifo.o)
 .data          0x020279a4        0x0 c:/devkitPro/PAlib/lib\libpa9.a(PA_Keyboard.o)
 .data          0x020279a4        0x0 c:/devkitPro/PAlib/lib\libpa9.a(PA_PaletteEx.o)
 .data          0x020279a4        0x0 c:/devkitPro/PAlib/lib\libpa9.a(keyboard.map.o)
 .data          0x020279a4        0x0 c:/devkitPro/PAlib/lib\libpa9.a(keyboard.pal.o)
 .data          0x020279a4        0x0 c:/devkitPro/PAlib/lib\libpa9.a(keyboard.raw.o)
 .data          0x020279a4        0x0 c:/devkitPro/libnds/lib\libnds9.a(exceptions.o)
 .data          0x020279a4        0x3 c:/devkitPro/libnds/lib\libnds9.a(keys.o)
 .data          0x020279a7        0x0 c:/devkitPro/libnds/lib\libnds9.a(system.o)
 .data          0x020279a7        0x0 c:/devkitPro/libnds/lib\libnds9.a(touch.o)
 .data          0x020279a7        0x0 c:/devkitPro/libnds/lib\libnds9.a(video.o)
 .data          0x020279a7        0x0 c:/devkitPro/libnds/lib\libnds9.a(initSystem.o)
 *fill*         0x020279a7        0x1 ff
 .data          0x020279a8       0x10 c:/devkitPro/libnds/lib\libnds9.a(fifosystem.o)
                0x020279a8                fifo_buffer_free
                0x020279ac                fifo_freewords
                0x020279b0                fifo_send_queue
                0x020279b4                fifo_receive_queue
 .data          0x020279b8        0x0 c:/devkitPro/libnds/lib\libnds9.a(interrupts.o)
 .data          0x020279b8        0x0 c:/devkitPro/libnds/lib\libnds9.a(libnds_exit.arm.o)
 .data          0x020279b8        0x0 c:/devkitPro/libnds/lib\libnds9.a(dcache.o)
 .data          0x020279b8        0x0 c:/devkitPro/libnds/lib\libnds9.a(exceptionHandler.o)
 .data          0x020279b8        0x0 c:/devkitPro/libnds/lib\libnds9.a(mpu_setup.o)
 .data          0x020279b8        0x0 c:/devkitPro/libnds/lib\libnds9.a(biosCalls.o)
 .data          0x020279b8        0x0 c:/devkitPro/libnds/lib\libnds9.a(interruptDispatcher.o)
 .data          0x020279b8        0x0 c:/devkitPro/libnds/lib\libnds9.a(swiSoftReset.o)
 .data          0x020279b8        0x0 c:/devkitpro/devkitarm/bin/../lib/gcc/arm-none-eabi/4.7.1/thumb\libgcc.a(_divsi3.o)
 .data          0x020279b8        0x0 c:/devkitpro/devkitarm/bin/../lib/gcc/arm-none-eabi/4.7.1/thumb\libgcc.a(_dvmd_tls.o)
 .data          0x020279b8        0x0 c:/devkitpro/devkitarm/bin/../lib/gcc/arm-none-eabi/4.7.1/thumb\libgcc.a(_arm_addsubdf3.o)
 .data          0x020279b8        0x0 c:/devkitpro/devkitarm/bin/../lib/gcc/arm-none-eabi/4.7.1/thumb\libgcc.a(_arm_muldivdf3.o)
 .data          0x020279b8        0x0 c:/devkitpro/devkitarm/bin/../lib/gcc/arm-none-eabi/4.7.1/thumb\libgcc.a(_arm_cmpdf2.o)
 .data          0x020279b8        0x0 c:/devkitpro/devkitarm/bin/../lib/gcc/arm-none-eabi/4.7.1/thumb\libgcc.a(_arm_fixdfsi.o)
 .data          0x020279b8        0x0 c:/devkitpro/devkitarm/bin/../lib/gcc/arm-none-eabi/4.7.1/thumb\libgcc.a(_muldi3.o)
 .data          0x020279b8        0x0 c:/devkitpro/devkitarm/bin/../lib/gcc/arm-none-eabi/4.7.1/../../../../arm-none-eabi/lib/thumb\libg.a(lib_a-gmtime.o)
 .data          0x020279b8        0x0 c:/devkitpro/devkitarm/bin/../lib/gcc/arm-none-eabi/4.7.1/../../../../arm-none-eabi/lib/thumb\libg.a(lib_a-gmtime_r.o)
 .data          0x020279b8      0x430 c:/devkitpro/devkitarm/bin/../lib/gcc/arm-none-eabi/4.7.1/../../../../arm-none-eabi/lib/thumb\libg.a(lib_a-impure.o)
                0x020279b8                _impure_ptr
 .data          0x02027de8        0x0 c:/devkitpro/devkitarm/bin/../lib/gcc/arm-none-eabi/4.7.1/../../../../arm-none-eabi/lib/thumb\libg.a(lib_a-init.o)
 .data          0x02027de8      0x17c c:/devkitpro/devkitarm/bin/../lib/gcc/arm-none-eabi/4.7.1/../../../../arm-none-eabi/lib/thumb\libg.a(lib_a-locale.o)
                0x02027de8                __default_locale
                0x02027f08                __mb_cur_max
 .data          0x02027f64        0x0 c:/devkitpro/devkitarm/bin/../lib/gcc/arm-none-eabi/4.7.1/../../../../arm-none-eabi/lib/thumb\libg.a(lib_a-malloc.o)
 .data          0x02027f64      0x410 c:/devkitpro/devkitarm/bin/../lib/gcc/arm-none-eabi/4.7.1/../../../../arm-none-eabi/lib/thumb\libg.a(lib_a-mallocr.o)
                0x02027f64                __malloc_av_
                0x0202836c                __malloc_sbrk_base
                0x02028370                __malloc_trim_threshold
 .data          0x02028374        0x4 c:/devkitpro/devkitarm/bin/../lib/gcc/arm-none-eabi/4.7.1/../../../../arm-none-eabi/lib/thumb\libg.a(lib_a-mbtowc_r.o)
                0x02028374                __mbtowc
 .data          0x02028378        0x0 c:/devkitpro/devkitarm/bin/../lib/gcc/arm-none-eabi/4.7.1/../../../../arm-none-eabi/lib/thumb\libg.a(lib_a-memcpy-stub.o)
 .data          0x02028378        0x0 c:/devkitpro/devkitarm/bin/../lib/gcc/arm-none-eabi/4.7.1/../../../../arm-none-eabi/lib/thumb\libg.a(lib_a-memset.o)
 .data          0x02028378        0x0 c:/devkitpro/devkitarm/bin/../lib/gcc/arm-none-eabi/4.7.1/../../../../arm-none-eabi/lib/thumb\libg.a(lib_a-mktm_r.o)
 .data          0x02028378        0x0 c:/devkitpro/devkitarm/bin/../lib/gcc/arm-none-eabi/4.7.1/../../../../arm-none-eabi/lib/thumb\libg.a(lib_a-mlock.o)
 .data          0x02028378        0x0 c:/devkitpro/devkitarm/bin/../lib/gcc/arm-none-eabi/4.7.1/../../../../arm-none-eabi/lib/thumb\libg.a(lib_a-sprintf.o)
 .data          0x02028378        0x0 c:/devkitpro/devkitarm/bin/../lib/gcc/arm-none-eabi/4.7.1/../../../../arm-none-eabi/lib/thumb\libg.a(lib_a-strcasecmp.o)
 .data          0x02028378        0x0 c:/devkitpro/devkitarm/bin/../lib/gcc/arm-none-eabi/4.7.1/../../../../arm-none-eabi/lib/thumb\libg.a(lib_a-strcat.o)
 .data          0x02028378        0x0 c:/devkitpro/devkitarm/bin/../lib/gcc/arm-none-eabi/4.7.1/../../../../arm-none-eabi/lib/thumb\libg.a(lib_a-strchr.o)
 .data          0x02028378        0x0 c:/devkitpro/devkitarm/bin/../lib/gcc/arm-none-eabi/4.7.1/../../../../arm-none-eabi/lib/thumb\libg.a(lib_a-strcmp.o)
 .data          0x02028378        0x0 c:/devkitpro/devkitarm/bin/../lib/gcc/arm-none-eabi/4.7.1/../../../../arm-none-eabi/lib/thumb\libg.a(lib_a-strcpy.o)
 .data          0x02028378        0x0 c:/devkitpro/devkitarm/bin/../lib/gcc/arm-none-eabi/4.7.1/../../../../arm-none-eabi/lib/thumb\libg.a(lib_a-strlcpy.o)
 .data          0x02028378        0x0 c:/devkitpro/devkitarm/bin/../lib/gcc/arm-none-eabi/4.7.1/../../../../arm-none-eabi/lib/thumb\libg.a(lib_a-strlen.o)
 .data          0x02028378        0x0 c:/devkitpro/devkitarm/bin/../lib/gcc/arm-none-eabi/4.7.1/../../../../arm-none-eabi/lib/thumb\libg.a(lib_a-strncasecmp.o)
 .data          0x02028378        0x0 c:/devkitpro/devkitarm/bin/../lib/gcc/arm-none-eabi/4.7.1/../../../../arm-none-eabi/lib/thumb\libg.a(lib_a-strncmp.o)
 .data          0x02028378        0x0 c:/devkitpro/devkitarm/bin/../lib/gcc/arm-none-eabi/4.7.1/../../../../arm-none-eabi/lib/thumb\libg.a(lib_a-strncpy.o)
 .data          0x02028378        0x0 c:/devkitpro/devkitarm/bin/../lib/gcc/arm-none-eabi/4.7.1/../../../../arm-none-eabi/lib/thumb\libg.a(lib_a-strtol.o)
 .data          0x02028378        0x0 c:/devkitpro/devkitarm/bin/../lib/gcc/arm-none-eabi/4.7.1/../../../../arm-none-eabi/lib/thumb\libg.a(lib_a-svfprintf.o)
 .data          0x02028378        0x0 c:/devkitpro/devkitarm/bin/../lib/gcc/arm-none-eabi/4.7.1/../../../../arm-none-eabi/lib/thumb\libg.a(lib_a-sysstat.o)
 .data          0x02028378        0x0 c:/devkitpro/devkitarm/bin/../lib/gcc/arm-none-eabi/4.7.1/../../../../arm-none-eabi/lib/thumb\libg.a(lib_a-time.o)
 .data          0x02028378        0x0 c:/devkitpro/devkitarm/bin/../lib/gcc/arm-none-eabi/4.7.1/../../../../arm-none-eabi/lib/thumb\libg.a(lib_a-tzlock.o)
 .data          0x02028378        0x8 c:/devkitpro/devkitarm/bin/../lib/gcc/arm-none-eabi/4.7.1/../../../../arm-none-eabi/lib/thumb\libg.a(lib_a-tzvars.o)
                0x02028378                _tzname
 .data          0x02028380        0x0 c:/devkitpro/devkitarm/bin/../lib/gcc/arm-none-eabi/4.7.1/../../../../arm-none-eabi/lib/thumb\libg.a(lib_a-wcrtomb.o)
 .data          0x02028380        0x0 c:/devkitpro/devkitarm/bin/../lib/gcc/arm-none-eabi/4.7.1/../../../../arm-none-eabi/lib/thumb\libg.a(lib_a-wcsrtombs.o)
 .data          0x02028380        0x4 c:/devkitpro/devkitarm/bin/../lib/gcc/arm-none-eabi/4.7.1/../../../../arm-none-eabi/lib/thumb\libg.a(lib_a-wctomb_r.o)
                0x02028380                __wctomb
 .data          0x02028384        0x4 c:/devkitpro/devkitarm/bin/../lib/gcc/arm-none-eabi/4.7.1/../../../../arm-none-eabi/lib/thumb\libg.a(lib_a-ctype_.o)
                0x02028384                __ctype_ptr__
 .data          0x02028388        0x0 c:/devkitpro/devkitarm/bin/../lib/gcc/arm-none-eabi/4.7.1/../../../../arm-none-eabi/lib/thumb\libg.a(lib_a-dtoa.o)
 .data          0x02028388        0x0 c:/devkitpro/devkitarm/bin/../lib/gcc/arm-none-eabi/4.7.1/../../../../arm-none-eabi/lib/thumb\libg.a(lib_a-freer.o)
 .data          0x02028388        0x0 c:/devkitpro/devkitarm/bin/../lib/gcc/arm-none-eabi/4.7.1/../../../../arm-none-eabi/lib/thumb\libg.a(lib_a-getenv_r.o)
 .data          0x02028388       0x40 c:/devkitpro/devkitarm/bin/../lib/gcc/arm-none-eabi/4.7.1/../../../../arm-none-eabi/lib/thumb\libg.a(lib_a-gettzinfo.o)
 .data          0x020283c8        0x0 c:/devkitpro/devkitarm/bin/../lib/gcc/arm-none-eabi/4.7.1/../../../../arm-none-eabi/lib/thumb\libg.a(lib_a-memchr-stub.o)
 .data          0x020283c8        0x0 c:/devkitpro/devkitarm/bin/../lib/gcc/arm-none-eabi/4.7.1/../../../../arm-none-eabi/lib/thumb\libg.a(lib_a-mprec.o)
 .data          0x020283c8        0x0 c:/devkitpro/devkitarm/bin/../lib/gcc/arm-none-eabi/4.7.1/../../../../arm-none-eabi/lib/thumb\libg.a(lib_a-s_fpclassify.o)
 .data          0x020283c8        0x0 c:/devkitpro/devkitarm/bin/../lib/gcc/arm-none-eabi/4.7.1/../../../../arm-none-eabi/lib/thumb\libg.a(lib_a-svfiprintf.o)
 .data          0x020283c8        0x0 c:/devkitpro/devkitarm/bin/../lib/gcc/arm-none-eabi/4.7.1/../../../../arm-none-eabi/lib/thumb\libg.a(lib_a-wcsnrtombs.o)
 .data          0x020283c8        0x0 c:/devkitpro/devkitarm/bin/../lib/gcc/arm-none-eabi/4.7.1/../../../../arm-none-eabi/lib/thumb\libg.a(lib_a-callocr.o)
 .data          0x020283c8        0x4 c:/devkitpro/devkitarm/bin/../lib/gcc/arm-none-eabi/4.7.1/../../../../arm-none-eabi/lib/thumb\libg.a(lib_a-environ.o)
                0x020283c8                environ
 .data          0x020283cc        0x0 c:/devkitpro/devkitarm/bin/../lib/gcc/arm-none-eabi/4.7.1/../../../../arm-none-eabi/lib/thumb\libg.a(lib_a-envlock.o)
 .data          0x020283cc        0x0 c:/devkitpro/devkitarm/bin/../lib/gcc/arm-none-eabi/4.7.1/../../../../arm-none-eabi/lib/thumb\libg.a(lib_a-memmove.o)
 .data          0x020283cc        0x0 c:/devkitpro/devkitarm/bin/../lib/gcc/arm-none-eabi/4.7.1/../../../../arm-none-eabi/lib/thumb\libg.a(lib_a-reallocr.o)
 .data          0x020283cc        0x0 c:/devkitpro/devkitarm/bin/../lib/gcc/arm-none-eabi/4.7.1/../../../../arm-none-eabi/lib/thumb\libsysbase.a(sbrk.o)
 .data          0x020283cc        0x0 c:/devkitpro/devkitarm/bin/../lib/gcc/arm-none-eabi/4.7.1/../../../../arm-none-eabi/lib/thumb\libsysbase.a(stat.o)
 .data          0x020283cc        0x0 c:/devkitpro/devkitarm/bin/../lib/gcc/arm-none-eabi/4.7.1/../../../../arm-none-eabi/lib/thumb\libsysbase.a(times.o)
 .data          0x020283cc        0x0 c:/devkitpro/devkitarm/bin/../lib/gcc/arm-none-eabi/4.7.1/../../../../arm-none-eabi/lib/thumb\libsysbase.a(malloc_vars.o)
 .data          0x020283cc        0x0 c:/devkitpro/devkitarm/bin/../lib/gcc/arm-none-eabi/4.7.1/../../../../arm-none-eabi/lib/thumb\libsysbase.a(build_argv.o)
 .data          0x020283cc        0x0 c:/devkitpro/devkitarm/bin/../lib/gcc/arm-none-eabi/4.7.1/../../../../arm-none-eabi/lib/thumb\libsysbase.a(syscall_support.o)
 .data          0x020283cc        0x0 c:/devkitpro/devkitarm/bin/../lib/gcc/arm-none-eabi/4.7.1/../../../../arm-none-eabi/lib/thumb\libsysbase.a(dirent.o)
 .data          0x020283cc       0x44 c:/devkitpro/devkitarm/bin/../lib/gcc/arm-none-eabi/4.7.1/../../../../arm-none-eabi/lib/thumb\libsysbase.a(iosupport.o)
                0x020283d0                devoptab_list
 .data          0x02028410        0x0 c:/devkitpro/devkitarm/bin/../lib/gcc/arm-none-eabi/4.7.1/thumb\libgcc.a(_udivsi3.o)
 .data          0x02028410        0x0 c:/devkitpro/devkitarm/bin/../lib/gcc/arm-none-eabi/4.7.1/thumb\libgcc.a(_aeabi_uldivmod.o)
 .data          0x02028410        0x0 c:/devkitpro/devkitarm/bin/../lib/gcc/arm-none-eabi/4.7.1/thumb\libgcc.a(bpabi.o)
 .data          0x02028410        0x0 c:/devkitpro/devkitarm/bin/../lib/gcc/arm-none-eabi/4.7.1/thumb\libgcc.a(_divdi3.o)
 .data          0x02028410        0x0 c:/devkitpro/devkitarm/bin/../lib/gcc/arm-none-eabi/4.7.1/thumb\libgcc.a(_udivdi3.o)
 .data          0x02028410        0x0 c:/devkitpro/devkitarm/bin/../lib/gcc/arm-none-eabi/4.7.1/thumb\libgcc.a(_clzsi2.o)
 .data          0x02028410        0x0 c:/devkitpro/devkitarm/bin/../lib/gcc/arm-none-eabi/4.7.1/../../../../arm-none-eabi/lib/thumb\libg.a(lib_a-errno.o)
 .data          0x02028410        0x0 c:/devkitpro/devkitarm/bin/../lib/gcc/arm-none-eabi/4.7.1/../../../../arm-none-eabi/lib/thumb\libg.a(lib_a-strnlen.o)
 .data          0x02028410        0x0 c:/devkitpro/devkitarm/bin/../lib/gcc/arm-none-eabi/4.7.1/thumb/crtend.o
 .data          0x02028410        0x0 c:/devkitpro/devkitarm/bin/../lib/gcc/arm-none-eabi/4.7.1/thumb/crtn.o
 *(.data.*)
 *(.gnu.linkonce.d*)
                0x02028410                . = ALIGN (0x4)
                0x02028410                __data_end = ABSOLUTE (.)
                0x02028410                __dtcm_lma = .
                0x02028410                __bss_vma = .

.igot.plt       0x02028410        0x0
 .igot.plt      0x00000000        0x0 c:/devkitpro/devkitarm/bin/../lib/gcc/arm-none-eabi/4.7.1/../../../../arm-none-eabi/lib/thumb/ds_arm9_crt0.o

.tm_clone_table
                0x02028410        0x0
 .tm_clone_table
                0x02028410        0x0 c:/devkitpro/devkitarm/bin/../lib/gcc/arm-none-eabi/4.7.1/thumb/crtbegin.o
 .tm_clone_table
                0x02028410        0x0 c:/devkitpro/devkitarm/bin/../lib/gcc/arm-none-eabi/4.7.1/thumb/crtend.o

.dtcm           0x0b000000        0x0 load address 0x02028410
 *(.dtcm)
 *(.dtcm.*)
                0x0b000000                . = ALIGN (0x4)
                0x0b000000                __dtcm_end = ABSOLUTE (.)
                0x02028410                __itcm_lma = (__dtcm_lma + SIZEOF (.dtcm))

.itcm           0x01000100      0x194 load address 0x02028410
 *(.itcm)
 .itcm          0x01000100       0xc8 c:/devkitPro/libnds/lib\libnds9.a(interrupts.o)
                0x01000100                irqTable
 .itcm          0x010001c8       0xcc c:/devkitPro/libnds/lib\libnds9.a(interruptDispatcher.o)
                0x010001c8                IntrMain
 *itcm.*(.text)
                0x01000294                . = ALIGN (0x4)
                0x01000294                __itcm_end = ABSOLUTE (.)
                0x020285a4                __vectors_lma = (__itcm_lma + SIZEOF (.itcm))

.vectors        0x01000000        0x0 load address 0x020285a4
 *(.vectors)
 *vectors.*(.text)
                0x01000000                . = ALIGN (0x4)
                0x01000000                __vectors_end = ABSOLUTE (.)

.sbss           0x0b000000        0x0
                0x0b000000                __sbss_start = ABSOLUTE (.)
                0x0b000000                __sbss_start__ = ABSOLUTE (.)
 *(.sbss)
                0x0b000000                . = ALIGN (0x4)
                0x0b000000                __sbss_end = ABSOLUTE (.)

.bss            0x02028410    0x1992c
                0x02028410                __bss_start = ABSOLUTE (.)
                0x02028410                __bss_start__ = ABSOLUTE (.)
 *(.dynbss)
 *(.gnu.linkonce.b*)
 *(.bss*)
 .bss           0x02028410        0x0 c:/devkitpro/devkitarm/bin/../lib/gcc/arm-none-eabi/4.7.1/../../../../arm-none-eabi/lib/thumb/ds_arm9_crt0.o
 .bss           0x02028410        0x0 c:/devkitpro/devkitarm/bin/../lib/gcc/arm-none-eabi/4.7.1/thumb/crti.o
 .bss           0x02028410       0x1c c:/devkitpro/devkitarm/bin/../lib/gcc/arm-none-eabi/4.7.1/thumb/crtbegin.o
 .bss           0x0202842c        0x0 map_Map.o
 .bss           0x0202842c        0x0 map_Pal.o
 .bss           0x0202842c        0x0 map_Tiles.o
 .bss           0x0202842c        0x0 start_Map.o
 .bss           0x0202842c        0x0 start_Pal.o
 .bss           0x0202842c        0x0 start_Tiles.o
 .bss           0x0202842c        0x0 main.o
 .bss           0x0202842c        0x0 screen.o
 .bss           0x0202842c        0x0 map.o
 .bss           0x0202842c        0x0 start.o
 .bss           0x0202842c       0x80 croutine.o
                0x0202842c                pxCurrentCoRoutine
 .bss           0x020284ac        0x0 list.o
 .bss           0x020284ac        0x0 queue.o
 .bss           0x020284ac     0x14cc tasks.o
                0x020284e4                pxCurrentTCB
 .bss           0x02029978        0x8 card_spi.o
 .bss           0x02029980     0x1050 gdbStub.o
                0x02029980                regMem
 .bss           0x0202a9d0        0x0 heap_3.o
 .bss           0x0202a9d0        0x0 port.o
 .bss           0x0202a9d0        0x0 portISR.o
 .bss           0x0202a9d0        0x0 gdbStubAsm.o
 .bss           0x0202a9d0        0x0 port_asm.o
 .bss           0x0202a9d0        0x4 c:/devkitPro/PAlib/lib\libpa9.a(PA.o)
                0x0202a9d0                pa_giftotexcolor
                0x0202a9d2                PA_Screen
                0x0202a9d3                PA_MoveSpriteType
 .bss           0x0202a9d4        0x0 c:/devkitPro/PAlib/lib\libpa9.a(PA_BgTiles.o)
 .bss           0x0202a9d4        0x0 c:/devkitPro/PAlib/lib\libpa9.a(PA_Error.o)
 .bss           0x0202a9d4        0x0 c:/devkitPro/PAlib/lib\libpa9.a(PA_Inits.o)
 .bss           0x0202a9d4        0x0 c:/devkitPro/PAlib/lib\libpa9.a(PA_Interrupt.o)
 .bss           0x0202a9d4        0x0 c:/devkitPro/PAlib/lib\libpa9.a(PA_Keys.o)
 .bss           0x0202a9d4        0x0 c:/devkitPro/PAlib/lib\libpa9.a(PA_Math.o)
 .bss           0x0202a9d4        0x0 c:/devkitPro/PAlib/lib\libpa9.a(PA_NewBg.o)
 .bss           0x0202a9d4        0x0 c:/devkitPro/PAlib/lib\libpa9.a(PA_Palette.o)
 .bss           0x0202a9d4        0x0 c:/devkitPro/PAlib/lib\libpa9.a(PA_RTC.o)
 .bss           0x0202a9d4        0x1 c:/devkitPro/PAlib/lib\libpa9.a(PA_Reco.o)
                0x0202a9d4                PA_CustomReco
 *fill*         0x0202a9d5        0x3 00
 .bss           0x0202a9d8        0xc c:/devkitPro/PAlib/lib\libpa9.a(PA_Sprite.o)
                0x0202a9d8                PA_SpriteExtPrio
                0x0202a9dc                FirstGfx
                0x0202a9e0                nspriteanims
 .bss           0x0202a9e4        0x0 c:/devkitPro/PAlib/lib\libpa9.a(PA_Stuff.o)
 .bss           0x0202a9e4        0x8 c:/devkitPro/PAlib/lib\libpa9.a(PA_Text.o)
                0x0202a9e4                PAtext_pal
                0x0202a9e8                PA_font
 .bss           0x0202a9ec        0x0 c:/devkitPro/PAlib/lib\libpa9.a(PA_Text8bit.o)
 .bss           0x0202a9ec        0x0 c:/devkitPro/PAlib/lib\libpa9.a(PA_TextBits.o)
 .bss           0x0202a9ec        0x0 c:/devkitPro/PAlib/lib\libpa9.a(PA_TiledFont.o)
 .bss           0x0202a9ec        0x0 c:/devkitPro/PAlib/lib\libpa9.a(PA_BmpFont0.o)
 .bss           0x0202a9ec        0x0 c:/devkitPro/PAlib/lib\libpa9.a(PA_BmpFont1.o)
 .bss           0x0202a9ec        0x0 c:/devkitPro/PAlib/lib\libpa9.a(PA_BmpFont2.o)
 .bss           0x0202a9ec        0x0 c:/devkitPro/PAlib/lib\libpa9.a(PA_BmpFont3.o)
 .bss           0x0202a9ec        0x0 c:/devkitPro/PAlib/lib\libpa9.a(PA_BmpFont4.o)
 .bss           0x0202a9ec        0x0 c:/devkitPro/PAlib/lib\libpa9.a(PA_TiledFont_Map.bin.o)
 .bss           0x0202a9ec        0x0 c:/devkitPro/PAlib/lib\libpa9.a(PA_TiledFont_Pal.bin.o)
 .bss           0x0202a9ec        0x0 c:/devkitPro/PAlib/lib\libpa9.a(PA_TiledFont_Tiles.bin.o)
 .bss           0x0202a9ec        0x0 c:/devkitPro/PAlib/lib\libpa9.a(PA_BmpFont0_Map.bin.o)
 .bss           0x0202a9ec        0x0 c:/devkitPro/PAlib/lib\libpa9.a(PA_BmpFont0_Sizes.bin.o)
 .bss           0x0202a9ec        0x0 c:/devkitPro/PAlib/lib\libpa9.a(PA_BmpFont0_Tiles.bin.o)
 .bss           0x0202a9ec        0x0 c:/devkitPro/PAlib/lib\libpa9.a(PA_BmpFont1_Map.bin.o)
 .bss           0x0202a9ec        0x0 c:/devkitPro/PAlib/lib\libpa9.a(PA_BmpFont1_Sizes.bin.o)
 .bss           0x0202a9ec        0x0 c:/devkitPro/PAlib/lib\libpa9.a(PA_BmpFont1_Tiles.bin.o)
 .bss           0x0202a9ec        0x0 c:/devkitPro/PAlib/lib\libpa9.a(PA_BmpFont2_Map.bin.o)
 .bss           0x0202a9ec        0x0 c:/devkitPro/PAlib/lib\libpa9.a(PA_BmpFont2_Sizes.bin.o)
 .bss           0x0202a9ec        0x0 c:/devkitPro/PAlib/lib\libpa9.a(PA_BmpFont2_Tiles.bin.o)
 .bss           0x0202a9ec        0x0 c:/devkitPro/PAlib/lib\libpa9.a(PA_BmpFont3_Map.bin.o)
 .bss           0x0202a9ec        0x0 c:/devkitPro/PAlib/lib\libpa9.a(PA_BmpFont3_Sizes.bin.o)
 .bss           0x0202a9ec        0x0 c:/devkitPro/PAlib/lib\libpa9.a(PA_BmpFont3_Tiles.bin.o)
 .bss           0x0202a9ec        0x0 c:/devkitPro/PAlib/lib\libpa9.a(PA_BmpFont4_Map.bin.o)
 .bss           0x0202a9ec        0x0 c:/devkitPro/PAlib/lib\libpa9.a(PA_BmpFont4_Sizes.bin.o)
 .bss           0x0202a9ec        0x0 c:/devkitPro/PAlib/lib\libpa9.a(PA_BmpFont4_Tiles.bin.o)
 .bss           0x0202a9ec        0x0 c:/devkitPro/PAlib/lib\libpa9.a(PA_16c.o)
 .bss           0x0202a9ec        0x0 c:/devkitPro/PAlib/lib\libpa9.a(PA_BgEasy.o)
 .bss           0x0202a9ec        0x0 c:/devkitPro/PAlib/lib\libpa9.a(PA_BgLargeMap.o)
 .bss           0x0202a9ec        0x0 c:/devkitPro/PAlib/lib\libpa9.a(PA_BgRot.o)
 .bss           0x0202a9ec        0x0 c:/devkitPro/PAlib/lib\libpa9.a(PA_Draw.o)
 .bss           0x0202a9ec        0x0 c:/devkitPro/PAlib/lib\libpa9.a(PA_Fifo.o)
 .bss           0x0202a9ec        0x1 c:/devkitPro/PAlib/lib\libpa9.a(PA_Keyboard.o)
                0x0202a9ec                keyb_screen
 .bss           0x0202a9ed        0x0 c:/devkitPro/PAlib/lib\libpa9.a(PA_PaletteEx.o)
 .bss           0x0202a9ed        0x0 c:/devkitPro/PAlib/lib\libpa9.a(keyboard.map.o)
 .bss           0x0202a9ed        0x0 c:/devkitPro/PAlib/lib\libpa9.a(keyboard.pal.o)
 .bss           0x0202a9ed        0x0 c:/devkitPro/PAlib/lib\libpa9.a(keyboard.raw.o)
 .bss           0x0202a9ed        0x0 c:/devkitPro/libnds/lib\libnds9.a(exceptions.o)
 *fill*         0x0202a9ed        0x1 00
 .bss           0x0202a9ee        0x6 c:/devkitPro/libnds/lib\libnds9.a(keys.o)
 .bss           0x0202a9f4        0x4 c:/devkitPro/libnds/lib\libnds9.a(system.o)
 .bss           0x0202a9f8        0x0 c:/devkitPro/libnds/lib\libnds9.a(touch.o)
 .bss           0x0202a9f8        0x0 c:/devkitPro/libnds/lib\libnds9.a(video.o)
 .bss           0x0202a9f8        0x0 c:/devkitPro/libnds/lib\libnds9.a(initSystem.o)
 .bss           0x0202a9f8        0x8 c:/devkitPro/libnds/lib\libnds9.a(fifosystem.o)
                0x0202a9fc                processing
 .bss           0x0202aa00        0x0 c:/devkitPro/libnds/lib\libnds9.a(interrupts.o)
 .bss           0x0202aa00        0x0 c:/devkitPro/libnds/lib\libnds9.a(libnds_exit.arm.o)
 .bss           0x0202aa00        0x0 c:/devkitPro/libnds/lib\libnds9.a(dcache.o)
 .bss           0x0202aa00        0x0 c:/devkitPro/libnds/lib\libnds9.a(exceptionHandler.o)
 .bss           0x0202aa00        0x0 c:/devkitPro/libnds/lib\libnds9.a(mpu_setup.o)
 .bss           0x0202aa00        0x0 c:/devkitPro/libnds/lib\libnds9.a(biosCalls.o)
 .bss           0x0202aa00        0x0 c:/devkitPro/libnds/lib\libnds9.a(interruptDispatcher.o)
 .bss           0x0202aa00        0x0 c:/devkitPro/libnds/lib\libnds9.a(swiSoftReset.o)
 .bss           0x0202aa00        0x0 c:/devkitpro/devkitarm/bin/../lib/gcc/arm-none-eabi/4.7.1/thumb\libgcc.a(_divsi3.o)
 .bss           0x0202aa00        0x0 c:/devkitpro/devkitarm/bin/../lib/gcc/arm-none-eabi/4.7.1/thumb\libgcc.a(_dvmd_tls.o)
 .bss           0x0202aa00        0x0 c:/devkitpro/devkitarm/bin/../lib/gcc/arm-none-eabi/4.7.1/thumb\libgcc.a(_arm_addsubdf3.o)
 .bss           0x0202aa00        0x0 c:/devkitpro/devkitarm/bin/../lib/gcc/arm-none-eabi/4.7.1/thumb\libgcc.a(_arm_muldivdf3.o)
 .bss           0x0202aa00        0x0 c:/devkitpro/devkitarm/bin/../lib/gcc/arm-none-eabi/4.7.1/thumb\libgcc.a(_arm_cmpdf2.o)
 .bss           0x0202aa00        0x0 c:/devkitpro/devkitarm/bin/../lib/gcc/arm-none-eabi/4.7.1/thumb\libgcc.a(_arm_fixdfsi.o)
 .bss           0x0202aa00        0x0 c:/devkitpro/devkitarm/bin/../lib/gcc/arm-none-eabi/4.7.1/thumb\libgcc.a(_muldi3.o)
 .bss           0x0202aa00        0x0 c:/devkitpro/devkitarm/bin/../lib/gcc/arm-none-eabi/4.7.1/../../../../arm-none-eabi/lib/thumb\libg.a(lib_a-gmtime.o)
 .bss           0x0202aa00        0x0 c:/devkitpro/devkitarm/bin/../lib/gcc/arm-none-eabi/4.7.1/../../../../arm-none-eabi/lib/thumb\libg.a(lib_a-gmtime_r.o)
 .bss           0x0202aa00        0x0 c:/devkitpro/devkitarm/bin/../lib/gcc/arm-none-eabi/4.7.1/../../../../arm-none-eabi/lib/thumb\libg.a(lib_a-impure.o)
 .bss           0x0202aa00        0x0 c:/devkitpro/devkitarm/bin/../lib/gcc/arm-none-eabi/4.7.1/../../../../arm-none-eabi/lib/thumb\libg.a(lib_a-init.o)
 .bss           0x0202aa00      0x2b8 c:/devkitpro/devkitarm/bin/../lib/gcc/arm-none-eabi/4.7.1/../../../../arm-none-eabi/lib/thumb\libg.a(lib_a-locale.o)
                0x0202acac                _PathLocale
                0x0202acb0                __mlocale_changed
                0x0202acb4                __nlocale_changed
 .bss           0x0202acb8        0x0 c:/devkitpro/devkitarm/bin/../lib/gcc/arm-none-eabi/4.7.1/../../../../arm-none-eabi/lib/thumb\libg.a(lib_a-malloc.o)
 .bss           0x0202acb8       0x34 c:/devkitpro/devkitarm/bin/../lib/gcc/arm-none-eabi/4.7.1/../../../../arm-none-eabi/lib/thumb\libg.a(lib_a-mallocr.o)
                0x0202acb8                __malloc_top_pad
                0x0202acbc                __malloc_current_mallinfo
                0x0202ace4                __malloc_max_sbrked_mem
                0x0202ace8                __malloc_max_total_mem
 .bss           0x0202acec        0x0 c:/devkitpro/devkitarm/bin/../lib/gcc/arm-none-eabi/4.7.1/../../../../arm-none-eabi/lib/thumb\libg.a(lib_a-mbtowc_r.o)
 .bss           0x0202acec        0x0 c:/devkitpro/devkitarm/bin/../lib/gcc/arm-none-eabi/4.7.1/../../../../arm-none-eabi/lib/thumb\libg.a(lib_a-memcpy-stub.o)
 .bss           0x0202acec        0x0 c:/devkitpro/devkitarm/bin/../lib/gcc/arm-none-eabi/4.7.1/../../../../arm-none-eabi/lib/thumb\libg.a(lib_a-memset.o)
 .bss           0x0202acec        0x0 c:/devkitpro/devkitarm/bin/../lib/gcc/arm-none-eabi/4.7.1/../../../../arm-none-eabi/lib/thumb\libg.a(lib_a-mktm_r.o)
 .bss           0x0202acec        0x0 c:/devkitpro/devkitarm/bin/../lib/gcc/arm-none-eabi/4.7.1/../../../../arm-none-eabi/lib/thumb\libg.a(lib_a-mlock.o)
 .bss           0x0202acec        0x0 c:/devkitpro/devkitarm/bin/../lib/gcc/arm-none-eabi/4.7.1/../../../../arm-none-eabi/lib/thumb\libg.a(lib_a-sprintf.o)
 .bss           0x0202acec        0x0 c:/devkitpro/devkitarm/bin/../lib/gcc/arm-none-eabi/4.7.1/../../../../arm-none-eabi/lib/thumb\libg.a(lib_a-strcasecmp.o)
 .bss           0x0202acec        0x0 c:/devkitpro/devkitarm/bin/../lib/gcc/arm-none-eabi/4.7.1/../../../../arm-none-eabi/lib/thumb\libg.a(lib_a-strcat.o)
 .bss           0x0202acec        0x0 c:/devkitpro/devkitarm/bin/../lib/gcc/arm-none-eabi/4.7.1/../../../../arm-none-eabi/lib/thumb\libg.a(lib_a-strchr.o)
 .bss           0x0202acec        0x0 c:/devkitpro/devkitarm/bin/../lib/gcc/arm-none-eabi/4.7.1/../../../../arm-none-eabi/lib/thumb\libg.a(lib_a-strcmp.o)
 .bss           0x0202acec        0x0 c:/devkitpro/devkitarm/bin/../lib/gcc/arm-none-eabi/4.7.1/../../../../arm-none-eabi/lib/thumb\libg.a(lib_a-strcpy.o)
 .bss           0x0202acec        0x0 c:/devkitpro/devkitarm/bin/../lib/gcc/arm-none-eabi/4.7.1/../../../../arm-none-eabi/lib/thumb\libg.a(lib_a-strlcpy.o)
 .bss           0x0202acec        0x0 c:/devkitpro/devkitarm/bin/../lib/gcc/arm-none-eabi/4.7.1/../../../../arm-none-eabi/lib/thumb\libg.a(lib_a-strlen.o)
 .bss           0x0202acec        0x0 c:/devkitpro/devkitarm/bin/../lib/gcc/arm-none-eabi/4.7.1/../../../../arm-none-eabi/lib/thumb\libg.a(lib_a-strncasecmp.o)
 .bss           0x0202acec        0x0 c:/devkitpro/devkitarm/bin/../lib/gcc/arm-none-eabi/4.7.1/../../../../arm-none-eabi/lib/thumb\libg.a(lib_a-strncmp.o)
 .bss           0x0202acec        0x0 c:/devkitpro/devkitarm/bin/../lib/gcc/arm-none-eabi/4.7.1/../../../../arm-none-eabi/lib/thumb\libg.a(lib_a-strncpy.o)
 .bss           0x0202acec        0x0 c:/devkitpro/devkitarm/bin/../lib/gcc/arm-none-eabi/4.7.1/../../../../arm-none-eabi/lib/thumb\libg.a(lib_a-strtol.o)
 .bss           0x0202acec        0x0 c:/devkitpro/devkitarm/bin/../lib/gcc/arm-none-eabi/4.7.1/../../../../arm-none-eabi/lib/thumb\libg.a(lib_a-svfprintf.o)
 .bss           0x0202acec        0x0 c:/devkitpro/devkitarm/bin/../lib/gcc/arm-none-eabi/4.7.1/../../../../arm-none-eabi/lib/thumb\libg.a(lib_a-sysstat.o)
 .bss           0x0202acec        0x0 c:/devkitpro/devkitarm/bin/../lib/gcc/arm-none-eabi/4.7.1/../../../../arm-none-eabi/lib/thumb\libg.a(lib_a-time.o)
 .bss           0x0202acec        0x0 c:/devkitpro/devkitarm/bin/../lib/gcc/arm-none-eabi/4.7.1/../../../../arm-none-eabi/lib/thumb\libg.a(lib_a-tzlock.o)
 .bss           0x0202acec        0x8 c:/devkitpro/devkitarm/bin/../lib/gcc/arm-none-eabi/4.7.1/../../../../arm-none-eabi/lib/thumb\libg.a(lib_a-tzvars.o)
                0x0202acec                _timezone
                0x0202acf0                _daylight
 .bss           0x0202acf4        0x0 c:/devkitpro/devkitarm/bin/../lib/gcc/arm-none-eabi/4.7.1/../../../../arm-none-eabi/lib/thumb\libg.a(lib_a-wcrtomb.o)
 .bss           0x0202acf4        0x0 c:/devkitpro/devkitarm/bin/../lib/gcc/arm-none-eabi/4.7.1/../../../../arm-none-eabi/lib/thumb\libg.a(lib_a-wcsrtombs.o)
 .bss           0x0202acf4        0x0 c:/devkitpro/devkitarm/bin/../lib/gcc/arm-none-eabi/4.7.1/../../../../arm-none-eabi/lib/thumb\libg.a(lib_a-wctomb_r.o)
 .bss           0x0202acf4        0x0 c:/devkitpro/devkitarm/bin/../lib/gcc/arm-none-eabi/4.7.1/../../../../arm-none-eabi/lib/thumb\libg.a(lib_a-ctype_.o)
 .bss           0x0202acf4        0x0 c:/devkitpro/devkitarm/bin/../lib/gcc/arm-none-eabi/4.7.1/../../../../arm-none-eabi/lib/thumb\libg.a(lib_a-dtoa.o)
 .bss           0x0202acf4        0x0 c:/devkitpro/devkitarm/bin/../lib/gcc/arm-none-eabi/4.7.1/../../../../arm-none-eabi/lib/thumb\libg.a(lib_a-freer.o)
 .bss           0x0202acf4        0x0 c:/devkitpro/devkitarm/bin/../lib/gcc/arm-none-eabi/4.7.1/../../../../arm-none-eabi/lib/thumb\libg.a(lib_a-getenv_r.o)
 .bss           0x0202acf4        0x0 c:/devkitpro/devkitarm/bin/../lib/gcc/arm-none-eabi/4.7.1/../../../../arm-none-eabi/lib/thumb\libg.a(lib_a-gettzinfo.o)
 .bss           0x0202acf4        0x0 c:/devkitpro/devkitarm/bin/../lib/gcc/arm-none-eabi/4.7.1/../../../../arm-none-eabi/lib/thumb\libg.a(lib_a-memchr-stub.o)
 .bss           0x0202acf4        0x0 c:/devkitpro/devkitarm/bin/../lib/gcc/arm-none-eabi/4.7.1/../../../../arm-none-eabi/lib/thumb\libg.a(lib_a-mprec.o)
 .bss           0x0202acf4        0x0 c:/devkitpro/devkitarm/bin/../lib/gcc/arm-none-eabi/4.7.1/../../../../arm-none-eabi/lib/thumb\libg.a(lib_a-s_fpclassify.o)
 .bss           0x0202acf4        0x0 c:/devkitpro/devkitarm/bin/../lib/gcc/arm-none-eabi/4.7.1/../../../../arm-none-eabi/lib/thumb\libg.a(lib_a-svfiprintf.o)
 .bss           0x0202acf4        0x0 c:/devkitpro/devkitarm/bin/../lib/gcc/arm-none-eabi/4.7.1/../../../../arm-none-eabi/lib/thumb\libg.a(lib_a-wcsnrtombs.o)
 .bss           0x0202acf4        0x0 c:/devkitpro/devkitarm/bin/../lib/gcc/arm-none-eabi/4.7.1/../../../../arm-none-eabi/lib/thumb\libg.a(lib_a-callocr.o)
 .bss           0x0202acf4        0x4 c:/devkitpro/devkitarm/bin/../lib/gcc/arm-none-eabi/4.7.1/../../../../arm-none-eabi/lib/thumb\libg.a(lib_a-environ.o)
 .bss           0x0202acf8        0x0 c:/devkitpro/devkitarm/bin/../lib/gcc/arm-none-eabi/4.7.1/../../../../arm-none-eabi/lib/thumb\libg.a(lib_a-envlock.o)
 .bss           0x0202acf8        0x0 c:/devkitpro/devkitarm/bin/../lib/gcc/arm-none-eabi/4.7.1/../../../../arm-none-eabi/lib/thumb\libg.a(lib_a-memmove.o)
 .bss           0x0202acf8        0x0 c:/devkitpro/devkitarm/bin/../lib/gcc/arm-none-eabi/4.7.1/../../../../arm-none-eabi/lib/thumb\libg.a(lib_a-reallocr.o)
 .bss           0x0202acf8        0x4 c:/devkitpro/devkitarm/bin/../lib/gcc/arm-none-eabi/4.7.1/../../../../arm-none-eabi/lib/thumb\libsysbase.a(sbrk.o)
 .bss           0x0202acfc        0x0 c:/devkitpro/devkitarm/bin/../lib/gcc/arm-none-eabi/4.7.1/../../../../arm-none-eabi/lib/thumb\libsysbase.a(stat.o)
 .bss           0x0202acfc        0x0 c:/devkitpro/devkitarm/bin/../lib/gcc/arm-none-eabi/4.7.1/../../../../arm-none-eabi/lib/thumb\libsysbase.a(times.o)
 .bss           0x0202acfc        0x8 c:/devkitpro/devkitarm/bin/../lib/gcc/arm-none-eabi/4.7.1/../../../../arm-none-eabi/lib/thumb\libsysbase.a(malloc_vars.o)
                0x0202acfc                fake_heap_start
                0x0202ad00                fake_heap_end
 .bss           0x0202ad04        0x0 c:/devkitpro/devkitarm/bin/../lib/gcc/arm-none-eabi/4.7.1/../../../../arm-none-eabi/lib/thumb\libsysbase.a(build_argv.o)
 .bss           0x0202ad04        0x8 c:/devkitpro/devkitarm/bin/../lib/gcc/arm-none-eabi/4.7.1/../../../../arm-none-eabi/lib/thumb\libsysbase.a(syscall_support.o)
                0x0202ad04                __syscalls
 .bss           0x0202ad0c        0x0 c:/devkitpro/devkitarm/bin/../lib/gcc/arm-none-eabi/4.7.1/../../../../arm-none-eabi/lib/thumb\libsysbase.a(dirent.o)
 .bss           0x0202ad0c        0x0 c:/devkitpro/devkitarm/bin/../lib/gcc/arm-none-eabi/4.7.1/../../../../arm-none-eabi/lib/thumb\libsysbase.a(iosupport.o)
 .bss           0x0202ad0c        0x0 c:/devkitpro/devkitarm/bin/../lib/gcc/arm-none-eabi/4.7.1/thumb\libgcc.a(_udivsi3.o)
 .bss           0x0202ad0c        0x0 c:/devkitpro/devkitarm/bin/../lib/gcc/arm-none-eabi/4.7.1/thumb\libgcc.a(_aeabi_uldivmod.o)
 .bss           0x0202ad0c        0x0 c:/devkitpro/devkitarm/bin/../lib/gcc/arm-none-eabi/4.7.1/thumb\libgcc.a(bpabi.o)
 .bss           0x0202ad0c        0x0 c:/devkitpro/devkitarm/bin/../lib/gcc/arm-none-eabi/4.7.1/thumb\libgcc.a(_divdi3.o)
 .bss           0x0202ad0c        0x0 c:/devkitpro/devkitarm/bin/../lib/gcc/arm-none-eabi/4.7.1/thumb\libgcc.a(_udivdi3.o)
 .bss           0x0202ad0c        0x0 c:/devkitpro/devkitarm/bin/../lib/gcc/arm-none-eabi/4.7.1/thumb\libgcc.a(_clzsi2.o)
 .bss           0x0202ad0c        0x0 c:/devkitpro/devkitarm/bin/../lib/gcc/arm-none-eabi/4.7.1/../../../../arm-none-eabi/lib/thumb\libg.a(lib_a-errno.o)
 .bss           0x0202ad0c        0x0 c:/devkitpro/devkitarm/bin/../lib/gcc/arm-none-eabi/4.7.1/../../../../arm-none-eabi/lib/thumb\libg.a(lib_a-strnlen.o)
 .bss           0x0202ad0c        0x0 c:/devkitpro/devkitarm/bin/../lib/gcc/arm-none-eabi/4.7.1/thumb/crtend.o
 .bss           0x0202ad0c        0x0 c:/devkitpro/devkitarm/bin/../lib/gcc/arm-none-eabi/4.7.1/thumb/crtn.o
 *(COMMON)
 COMMON         0x0202ad0c       0xd0 gdbStub.o
                0x0202ad0c                altRegisters
                0x0202ad74                registers
 COMMON         0x0202addc      0x22c c:/devkitPro/PAlib/lib\libpa9.a(PA.o)
                0x0202addc                PA_ScreenSpace
                0x0202ade0                PadPointer
                0x0202ade4                pa_checklid
                0x0202ade8                PA_IPC
                0x0202af80                Pad
                0x0202afa8                Stylus
                0x0202afc4                PA_bgmap
                0x0202afe4                PA_GifInfo
                0x0202aff8                PA_MovedSprite
 COMMON         0x0202b008      0x3d0 c:/devkitPro/PAlib/lib\libpa9.a(PA_BgTiles.o)
                0x0202b008                PA_parallaxY
                0x0202b028                PA_parallaxX
                0x0202b048                tempsize
                0x0202b04c                charblocks
                0x0202b0d8                PA_BgInfo
                0x0202b2f8                scrollpos
 COMMON         0x0202b3d8       0x50 c:/devkitPro/PAlib/lib\libpa9.a(PA_Interrupt.o)
                0x0202b3d8                PA_VBLCounter
                0x0202b418                PA_VBLCounterOn
 COMMON         0x0202b428        0x1 c:/devkitPro/PAlib/lib\libpa9.a(PA_Keys.o)
                0x0202b428                _PA_LidDown
 *fill*         0x0202b429        0x3 00
 COMMON         0x0202b42c        0x4 c:/devkitPro/PAlib/lib\libpa9.a(PA_Palette.o)
                0x0202b42c                PA_ExtPal
 COMMON         0x0202b430       0x5a c:/devkitPro/PAlib/lib\libpa9.a(PA_RTC.o)
                0x0202b430                PA_RTC
                0x0202b438                PA_UserInfo
 *fill*         0x0202b48a        0x2 00
 COMMON         0x0202b48c     0xa9bc c:/devkitPro/PAlib/lib\libpa9.a(PA_Reco.o)
                0x0202b48c                PA_Reco
                0x0202b498                PA_RecoInfo
                0x0202b4b0                PA_StylusPos
                0x020350f0                PA_CustomShape
                0x02035e38                PA_RecoShape
 COMMON         0x02035e48     0x8204 c:/devkitPro/PAlib/lib\libpa9.a(PA_Sprite.o)
                0x02035e48                free_mem
                0x02037e48                n_free_mem
                0x02037e4c                PA_SpritePrio
                0x02037f4c                used_mem
                0x0203874c                spriteanims
                0x0203ab4c                PA_SpriteAnimP
                0x0203cb4c                PA_first
                0x0203cd4c                PA_next
                0x0203ce4c                obj_per_gfx
                0x0203d64c                PA_obj
                0x0203de4c                DualSpriteX
                0x0203df4c                pa_obj_created
 COMMON         0x0203e04c       0x3c c:/devkitPro/PAlib/lib\libpa9.a(PA_Text.o)
                0x0203e04c                PA_texttiles
                0x0203e054                PA_TextBox
                0x0203e05c                PAbgtext
                0x0203e060                pa_printx
                0x0203e068                pa_printy
                0x0203e070                textcol
                0x0203e074                pa_printscroll
                0x0203e078                PA_textpal
                0x0203e080                PA_textmap
 COMMON         0x0203e088     0x301a c:/devkitPro/PAlib/lib\libpa9.a(PA_TextBits.o)
                0x0203e088                PA_LetterPos
                0x0204108c                pa_bittextpoliceheight
                0x02041098                pa_bittextsizes
 *fill*         0x020410a2        0x2 00
 COMMON         0x020410a4       0x10 c:/devkitPro/PAlib/lib\libpa9.a(PA_16c.o)
                0x020410a4                PA_Draw16
                0x020410ac                PA_Draw1632
 COMMON         0x020410b4        0x8 c:/devkitPro/PAlib/lib\libpa9.a(PA_BgRot.o)
                0x020410b4                rotbg_size
 COMMON         0x020410bc      0x226 c:/devkitPro/PAlib/lib\libpa9.a(PA_Draw.o)
                0x020410bc                PA_olddowntime
                0x020410c0                PA_DrawBg32
                0x020410c8                PA_DrawBg
                0x020410d0                PA_oldx
                0x020410d4                PA_drawsize
                0x020410d8                PA_oldy
                0x020410dc                tempvar
                0x020410e0                PA_temppal
                0x020412e0                PA_nBit
 *fill*         0x020412e2        0x2 00
 COMMON         0x020412e4       0x12 c:/devkitPro/PAlib/lib\libpa9.a(PA_Keyboard.o)
                0x020412e4                PA_Keyboard_Struct
 COMMON         0x020412f6        0x1 c:/devkitPro/libnds/lib\libnds9.a(initSystem.o)
                0x020412f6                __dsimode
 *fill*         0x020412f7        0x1 00
 COMMON         0x020412f8      0xa40 c:/devkitPro/libnds/lib\libnds9.a(fifosystem.o)
                0x020412f8                fifo_datamsg_data
                0x02041338                fifo_buffer
                0x02041b38                fifo_value32_func
                0x02041b78                fifo_address_func
                0x02041bb8                fifo_value32_data
                0x02041bf8                fifo_value32_queue
                0x02041c38                fifo_data_queue
                0x02041c78                fifo_address_data
                0x02041cb8                fifo_datamsg_func
                0x02041cf8                fifo_address_queue
 COMMON         0x02041d38        0x4 c:/devkitpro/devkitarm/bin/../lib/gcc/arm-none-eabi/4.7.1/../../../../arm-none-eabi/lib/thumb\libsysbase.a(times.o)
                0x02041d38                punixTime
                0x02041d3c                . = ALIGN (0x4)
                0x02041d3c                __bss_end__ = ABSOLUTE (.)
                0x02041d3c                __end__ = ABSOLUTE (.)

.stab
 *(.stab)

.stabstr
 *(.stabstr)

.stab.excl
 *(.stab.excl)

.stab.exclstr
 *(.stab.exclstr)

.stab.index
 *(.stab.index)

.stab.indexstr
 *(.stab.indexstr)

.comment        0x00000000       0x66
 *(.comment)
 .comment       0x00000000       0x22 c:/devkitpro/devkitarm/bin/../lib/gcc/arm-none-eabi/4.7.1/thumb/crtbegin.o
                                 0x23 (size before relaxing)
 .comment       0x00000000       0x23 main.o
 .comment       0x00000000       0x23 screen.o
 .comment       0x00000000       0x23 map.o
 .comment       0x00000000       0x23 start.o
 .comment       0x00000000       0x23 croutine.o
 .comment       0x00000000       0x23 list.o
 .comment       0x00000000       0x23 queue.o
 .comment       0x00000000       0x23 tasks.o
 .comment       0x00000000       0x23 card_spi.o
 .comment       0x00000000       0x23 gdbStub.o
 .comment       0x00000000       0x23 heap_3.o
 .comment       0x00000000       0x23 port.o
 .comment       0x00000000       0x23 portISR.o
 .comment       0x00000022       0x22 c:/devkitPro/PAlib/lib\libpa9.a(PA.o)
                                 0x23 (size before relaxing)
 .comment       0x00000000       0x23 c:/devkitPro/PAlib/lib\libpa9.a(PA_BgTiles.o)
 .comment       0x00000000       0x23 c:/devkitPro/PAlib/lib\libpa9.a(PA_Error.o)
 .comment       0x00000000       0x23 c:/devkitPro/PAlib/lib\libpa9.a(PA_Inits.o)
 .comment       0x00000000       0x23 c:/devkitPro/PAlib/lib\libpa9.a(PA_Interrupt.o)
 .comment       0x00000000       0x23 c:/devkitPro/PAlib/lib\libpa9.a(PA_Keys.o)
 .comment       0x00000000       0x23 c:/devkitPro/PAlib/lib\libpa9.a(PA_Math.o)
 .comment       0x00000000       0x23 c:/devkitPro/PAlib/lib\libpa9.a(PA_NewBg.o)
 .comment       0x00000000       0x23 c:/devkitPro/PAlib/lib\libpa9.a(PA_Palette.o)
 .comment       0x00000000       0x23 c:/devkitPro/PAlib/lib\libpa9.a(PA_RTC.o)
 .comment       0x00000000       0x23 c:/devkitPro/PAlib/lib\libpa9.a(PA_Reco.o)
 .comment       0x00000000       0x23 c:/devkitPro/PAlib/lib\libpa9.a(PA_Sprite.o)
 .comment       0x00000000       0x23 c:/devkitPro/PAlib/lib\libpa9.a(PA_Stuff.o)
 .comment       0x00000000       0x23 c:/devkitPro/PAlib/lib\libpa9.a(PA_Text.o)
 .comment       0x00000000       0x23 c:/devkitPro/PAlib/lib\libpa9.a(PA_Text8bit.o)
 .comment       0x00000000       0x23 c:/devkitPro/PAlib/lib\libpa9.a(PA_TextBits.o)
 .comment       0x00000000       0x23 c:/devkitPro/PAlib/lib\libpa9.a(PA_TiledFont.o)
 .comment       0x00000000       0x23 c:/devkitPro/PAlib/lib\libpa9.a(PA_BmpFont0.o)
 .comment       0x00000000       0x23 c:/devkitPro/PAlib/lib\libpa9.a(PA_BmpFont1.o)
 .comment       0x00000000       0x23 c:/devkitPro/PAlib/lib\libpa9.a(PA_BmpFont2.o)
 .comment       0x00000000       0x23 c:/devkitPro/PAlib/lib\libpa9.a(PA_BmpFont3.o)
 .comment       0x00000000       0x23 c:/devkitPro/PAlib/lib\libpa9.a(PA_BmpFont4.o)
 .comment       0x00000000       0x23 c:/devkitPro/PAlib/lib\libpa9.a(PA_16c.o)
 .comment       0x00000000       0x23 c:/devkitPro/PAlib/lib\libpa9.a(PA_BgEasy.o)
 .comment       0x00000000       0x23 c:/devkitPro/PAlib/lib\libpa9.a(PA_BgLargeMap.o)
 .comment       0x00000000       0x23 c:/devkitPro/PAlib/lib\libpa9.a(PA_BgRot.o)
 .comment       0x00000000       0x23 c:/devkitPro/PAlib/lib\libpa9.a(PA_Draw.o)
 .comment       0x00000000       0x23 c:/devkitPro/PAlib/lib\libpa9.a(PA_Fifo.o)
 .comment       0x00000000       0x23 c:/devkitPro/PAlib/lib\libpa9.a(PA_Keyboard.o)
 .comment       0x00000000       0x23 c:/devkitPro/PAlib/lib\libpa9.a(PA_PaletteEx.o)
 .comment       0x00000000       0x23 c:/devkitPro/PAlib/lib\libpa9.a(keyboard.map.o)
 .comment       0x00000000       0x23 c:/devkitPro/PAlib/lib\libpa9.a(keyboard.pal.o)
 .comment       0x00000000       0x23 c:/devkitPro/PAlib/lib\libpa9.a(keyboard.raw.o)
 .comment       0x00000044       0x22 c:/devkitPro/libnds/lib\libnds9.a(exceptions.o)
                                 0x23 (size before relaxing)
 .comment       0x00000000       0x23 c:/devkitPro/libnds/lib\libnds9.a(keys.o)
 .comment       0x00000000       0x23 c:/devkitPro/libnds/lib\libnds9.a(system.o)
 .comment       0x00000000       0x23 c:/devkitPro/libnds/lib\libnds9.a(touch.o)
 .comment       0x00000000       0x23 c:/devkitPro/libnds/lib\libnds9.a(video.o)
 .comment       0x00000000       0x23 c:/devkitPro/libnds/lib\libnds9.a(initSystem.o)
 .comment       0x00000000       0x23 c:/devkitPro/libnds/lib\libnds9.a(fifosystem.o)
 .comment       0x00000000       0x23 c:/devkitPro/libnds/lib\libnds9.a(interrupts.o)
 .comment       0x00000000       0x23 c:/devkitPro/libnds/lib\libnds9.a(libnds_exit.arm.o)
 .comment       0x00000000       0x23 c:/devkitpro/devkitarm/bin/../lib/gcc/arm-none-eabi/4.7.1/thumb\libgcc.a(_muldi3.o)
 .comment       0x00000000       0x23 c:/devkitpro/devkitarm/bin/../lib/gcc/arm-none-eabi/4.7.1/../../../../arm-none-eabi/lib/thumb\libg.a(lib_a-gmtime.o)
 .comment       0x00000000       0x23 c:/devkitpro/devkitarm/bin/../lib/gcc/arm-none-eabi/4.7.1/../../../../arm-none-eabi/lib/thumb\libg.a(lib_a-gmtime_r.o)
 .comment       0x00000000       0x23 c:/devkitpro/devkitarm/bin/../lib/gcc/arm-none-eabi/4.7.1/../../../../arm-none-eabi/lib/thumb\libg.a(lib_a-impure.o)
 .comment       0x00000000       0x23 c:/devkitpro/devkitarm/bin/../lib/gcc/arm-none-eabi/4.7.1/../../../../arm-none-eabi/lib/thumb\libg.a(lib_a-init.o)
 .comment       0x00000000       0x23 c:/devkitpro/devkitarm/bin/../lib/gcc/arm-none-eabi/4.7.1/../../../../arm-none-eabi/lib/thumb\libg.a(lib_a-locale.o)
 .comment       0x00000000       0x23 c:/devkitpro/devkitarm/bin/../lib/gcc/arm-none-eabi/4.7.1/../../../../arm-none-eabi/lib/thumb\libg.a(lib_a-malloc.o)
 .comment       0x00000000       0x23 c:/devkitpro/devkitarm/bin/../lib/gcc/arm-none-eabi/4.7.1/../../../../arm-none-eabi/lib/thumb\libg.a(lib_a-mallocr.o)
 .comment       0x00000000       0x23 c:/devkitpro/devkitarm/bin/../lib/gcc/arm-none-eabi/4.7.1/../../../../arm-none-eabi/lib/thumb\libg.a(lib_a-mbtowc_r.o)
 .comment       0x00000000       0x23 c:/devkitpro/devkitarm/bin/../lib/gcc/arm-none-eabi/4.7.1/../../../../arm-none-eabi/lib/thumb\libg.a(lib_a-memcpy-stub.o)
 .comment       0x00000000       0x23 c:/devkitpro/devkitarm/bin/../lib/gcc/arm-none-eabi/4.7.1/../../../../arm-none-eabi/lib/thumb\libg.a(lib_a-memset.o)
 .comment       0x00000000       0x23 c:/devkitpro/devkitarm/bin/../lib/gcc/arm-none-eabi/4.7.1/../../../../arm-none-eabi/lib/thumb\libg.a(lib_a-mktm_r.o)
 .comment       0x00000000       0x23 c:/devkitpro/devkitarm/bin/../lib/gcc/arm-none-eabi/4.7.1/../../../../arm-none-eabi/lib/thumb\libg.a(lib_a-mlock.o)
 .comment       0x00000000       0x23 c:/devkitpro/devkitarm/bin/../lib/gcc/arm-none-eabi/4.7.1/../../../../arm-none-eabi/lib/thumb\libg.a(lib_a-sprintf.o)
 .comment       0x00000000       0x23 c:/devkitpro/devkitarm/bin/../lib/gcc/arm-none-eabi/4.7.1/../../../../arm-none-eabi/lib/thumb\libg.a(lib_a-strcasecmp.o)
 .comment       0x00000000       0x23 c:/devkitpro/devkitarm/bin/../lib/gcc/arm-none-eabi/4.7.1/../../../../arm-none-eabi/lib/thumb\libg.a(lib_a-strcat.o)
 .comment       0x00000000       0x23 c:/devkitpro/devkitarm/bin/../lib/gcc/arm-none-eabi/4.7.1/../../../../arm-none-eabi/lib/thumb\libg.a(lib_a-strchr.o)
 .comment       0x00000000       0x23 c:/devkitpro/devkitarm/bin/../lib/gcc/arm-none-eabi/4.7.1/../../../../arm-none-eabi/lib/thumb\libg.a(lib_a-strcmp.o)
 .comment       0x00000000       0x23 c:/devkitpro/devkitarm/bin/../lib/gcc/arm-none-eabi/4.7.1/../../../../arm-none-eabi/lib/thumb\libg.a(lib_a-strcpy.o)
 .comment       0x00000000       0x23 c:/devkitpro/devkitarm/bin/../lib/gcc/arm-none-eabi/4.7.1/../../../../arm-none-eabi/lib/thumb\libg.a(lib_a-strlcpy.o)
 .comment       0x00000000       0x23 c:/devkitpro/devkitarm/bin/../lib/gcc/arm-none-eabi/4.7.1/../../../../arm-none-eabi/lib/thumb\libg.a(lib_a-strlen.o)
 .comment       0x00000000       0x23 c:/devkitpro/devkitarm/bin/../lib/gcc/arm-none-eabi/4.7.1/../../../../arm-none-eabi/lib/thumb\libg.a(lib_a-strncasecmp.o)
 .comment       0x00000000       0x23 c:/devkitpro/devkitarm/bin/../lib/gcc/arm-none-eabi/4.7.1/../../../../arm-none-eabi/lib/thumb\libg.a(lib_a-strncmp.o)
 .comment       0x00000000       0x23 c:/devkitpro/devkitarm/bin/../lib/gcc/arm-none-eabi/4.7.1/../../../../arm-none-eabi/lib/thumb\libg.a(lib_a-strncpy.o)
 .comment       0x00000000       0x23 c:/devkitpro/devkitarm/bin/../lib/gcc/arm-none-eabi/4.7.1/../../../../arm-none-eabi/lib/thumb\libg.a(lib_a-strtol.o)
 .comment       0x00000000       0x23 c:/devkitpro/devkitarm/bin/../lib/gcc/arm-none-eabi/4.7.1/../../../../arm-none-eabi/lib/thumb\libg.a(lib_a-svfprintf.o)
 .comment       0x00000000       0x23 c:/devkitpro/devkitarm/bin/../lib/gcc/arm-none-eabi/4.7.1/../../../../arm-none-eabi/lib/thumb\libg.a(lib_a-sysstat.o)
 .comment       0x00000000       0x23 c:/devkitpro/devkitarm/bin/../lib/gcc/arm-none-eabi/4.7.1/../../../../arm-none-eabi/lib/thumb\libg.a(lib_a-time.o)
 .comment       0x00000000       0x23 c:/devkitpro/devkitarm/bin/../lib/gcc/arm-none-eabi/4.7.1/../../../../arm-none-eabi/lib/thumb\libg.a(lib_a-tzlock.o)
 .comment       0x00000000       0x23 c:/devkitpro/devkitarm/bin/../lib/gcc/arm-none-eabi/4.7.1/../../../../arm-none-eabi/lib/thumb\libg.a(lib_a-tzvars.o)
 .comment       0x00000000       0x23 c:/devkitpro/devkitarm/bin/../lib/gcc/arm-none-eabi/4.7.1/../../../../arm-none-eabi/lib/thumb\libg.a(lib_a-wcrtomb.o)
 .comment       0x00000000       0x23 c:/devkitpro/devkitarm/bin/../lib/gcc/arm-none-eabi/4.7.1/../../../../arm-none-eabi/lib/thumb\libg.a(lib_a-wcsrtombs.o)
 .comment       0x00000000       0x23 c:/devkitpro/devkitarm/bin/../lib/gcc/arm-none-eabi/4.7.1/../../../../arm-none-eabi/lib/thumb\libg.a(lib_a-wctomb_r.o)
 .comment       0x00000000       0x23 c:/devkitpro/devkitarm/bin/../lib/gcc/arm-none-eabi/4.7.1/../../../../arm-none-eabi/lib/thumb\libg.a(lib_a-ctype_.o)
 .comment       0x00000000       0x23 c:/devkitpro/devkitarm/bin/../lib/gcc/arm-none-eabi/4.7.1/../../../../arm-none-eabi/lib/thumb\libg.a(lib_a-dtoa.o)
 .comment       0x00000000       0x23 c:/devkitpro/devkitarm/bin/../lib/gcc/arm-none-eabi/4.7.1/../../../../arm-none-eabi/lib/thumb\libg.a(lib_a-freer.o)
 .comment       0x00000000       0x23 c:/devkitpro/devkitarm/bin/../lib/gcc/arm-none-eabi/4.7.1/../../../../arm-none-eabi/lib/thumb\libg.a(lib_a-getenv_r.o)
 .comment       0x00000000       0x23 c:/devkitpro/devkitarm/bin/../lib/gcc/arm-none-eabi/4.7.1/../../../../arm-none-eabi/lib/thumb\libg.a(lib_a-gettzinfo.o)
 .comment       0x00000000       0x23 c:/devkitpro/devkitarm/bin/../lib/gcc/arm-none-eabi/4.7.1/../../../../arm-none-eabi/lib/thumb\libg.a(lib_a-memchr-stub.o)
 .comment       0x00000000       0x23 c:/devkitpro/devkitarm/bin/../lib/gcc/arm-none-eabi/4.7.1/../../../../arm-none-eabi/lib/thumb\libg.a(lib_a-mprec.o)
 .comment       0x00000000       0x23 c:/devkitpro/devkitarm/bin/../lib/gcc/arm-none-eabi/4.7.1/../../../../arm-none-eabi/lib/thumb\libg.a(lib_a-s_fpclassify.o)
 .comment       0x00000000       0x23 c:/devkitpro/devkitarm/bin/../lib/gcc/arm-none-eabi/4.7.1/../../../../arm-none-eabi/lib/thumb\libg.a(lib_a-svfiprintf.o)
 .comment       0x00000000       0x23 c:/devkitpro/devkitarm/bin/../lib/gcc/arm-none-eabi/4.7.1/../../../../arm-none-eabi/lib/thumb\libg.a(lib_a-wcsnrtombs.o)
 .comment       0x00000000       0x23 c:/devkitpro/devkitarm/bin/../lib/gcc/arm-none-eabi/4.7.1/../../../../arm-none-eabi/lib/thumb\libg.a(lib_a-callocr.o)
 .comment       0x00000000       0x23 c:/devkitpro/devkitarm/bin/../lib/gcc/arm-none-eabi/4.7.1/../../../../arm-none-eabi/lib/thumb\libg.a(lib_a-environ.o)
 .comment       0x00000000       0x23 c:/devkitpro/devkitarm/bin/../lib/gcc/arm-none-eabi/4.7.1/../../../../arm-none-eabi/lib/thumb\libg.a(lib_a-envlock.o)
 .comment       0x00000000       0x23 c:/devkitpro/devkitarm/bin/../lib/gcc/arm-none-eabi/4.7.1/../../../../arm-none-eabi/lib/thumb\libg.a(lib_a-memmove.o)
 .comment       0x00000000       0x23 c:/devkitpro/devkitarm/bin/../lib/gcc/arm-none-eabi/4.7.1/../../../../arm-none-eabi/lib/thumb\libg.a(lib_a-reallocr.o)
 .comment       0x00000000       0x23 c:/devkitpro/devkitarm/bin/../lib/gcc/arm-none-eabi/4.7.1/../../../../arm-none-eabi/lib/thumb\libsysbase.a(sbrk.o)
 .comment       0x00000000       0x23 c:/devkitpro/devkitarm/bin/../lib/gcc/arm-none-eabi/4.7.1/../../../../arm-none-eabi/lib/thumb\libsysbase.a(stat.o)
 .comment       0x00000000       0x23 c:/devkitpro/devkitarm/bin/../lib/gcc/arm-none-eabi/4.7.1/../../../../arm-none-eabi/lib/thumb\libsysbase.a(times.o)
 .comment       0x00000000       0x23 c:/devkitpro/devkitarm/bin/../lib/gcc/arm-none-eabi/4.7.1/../../../../arm-none-eabi/lib/thumb\libsysbase.a(malloc_vars.o)
 .comment       0x00000000       0x23 c:/devkitpro/devkitarm/bin/../lib/gcc/arm-none-eabi/4.7.1/../../../../arm-none-eabi/lib/thumb\libsysbase.a(build_argv.o)
 .comment       0x00000000       0x23 c:/devkitpro/devkitarm/bin/../lib/gcc/arm-none-eabi/4.7.1/../../../../arm-none-eabi/lib/thumb\libsysbase.a(syscall_support.o)
 .comment       0x00000000       0x23 c:/devkitpro/devkitarm/bin/../lib/gcc/arm-none-eabi/4.7.1/../../../../arm-none-eabi/lib/thumb\libsysbase.a(dirent.o)
 .comment       0x00000000       0x23 c:/devkitpro/devkitarm/bin/../lib/gcc/arm-none-eabi/4.7.1/../../../../arm-none-eabi/lib/thumb\libsysbase.a(iosupport.o)
 .comment       0x00000000       0x23 c:/devkitpro/devkitarm/bin/../lib/gcc/arm-none-eabi/4.7.1/thumb\libgcc.a(bpabi.o)
 .comment       0x00000000       0x23 c:/devkitpro/devkitarm/bin/../lib/gcc/arm-none-eabi/4.7.1/thumb\libgcc.a(_divdi3.o)
 .comment       0x00000000       0x23 c:/devkitpro/devkitarm/bin/../lib/gcc/arm-none-eabi/4.7.1/thumb\libgcc.a(_udivdi3.o)
 .comment       0x00000000       0x23 c:/devkitpro/devkitarm/bin/../lib/gcc/arm-none-eabi/4.7.1/../../../../arm-none-eabi/lib/thumb\libg.a(lib_a-errno.o)
 .comment       0x00000000       0x23 c:/devkitpro/devkitarm/bin/../lib/gcc/arm-none-eabi/4.7.1/../../../../arm-none-eabi/lib/thumb\libg.a(lib_a-strnlen.o)
 .comment       0x00000000       0x23 c:/devkitpro/devkitarm/bin/../lib/gcc/arm-none-eabi/4.7.1/thumb/crtend.o

.ARM.attributes
                0x00000000       0x2d
 .ARM.attributes
                0x00000000       0x23 c:/devkitpro/devkitarm/bin/../lib/gcc/arm-none-eabi/4.7.1/../../../../arm-none-eabi/lib/thumb/ds_arm9_crt0.o
 .ARM.attributes
                0x00000023       0x18 c:/devkitpro/devkitarm/bin/../lib/gcc/arm-none-eabi/4.7.1/thumb/crti.o
 .ARM.attributes
                0x0000003b       0x32 c:/devkitpro/devkitarm/bin/../lib/gcc/arm-none-eabi/4.7.1/thumb/crtbegin.o
 .ARM.attributes
                0x0000006d       0x16 map_Map.o
 .ARM.attributes
                0x00000083       0x16 map_Pal.o
 .ARM.attributes
                0x00000099       0x16 map_Tiles.o
 .ARM.attributes
                0x000000af       0x16 start_Map.o
 .ARM.attributes
                0x000000c5       0x16 start_Pal.o
 .ARM.attributes
                0x000000db       0x16 start_Tiles.o
 .ARM.attributes
                0x000000f1       0x29 main.o
 .ARM.attributes
                0x0000011a       0x29 screen.o
 .ARM.attributes
                0x00000143       0x29 map.o
 .ARM.attributes
                0x0000016c       0x29 start.o
 .ARM.attributes
                0x00000195       0x29 croutine.o
 .ARM.attributes
                0x000001be       0x29 list.o
 .ARM.attributes
                0x000001e7       0x29 queue.o
 .ARM.attributes
                0x00000210       0x29 tasks.o
 .ARM.attributes
                0x00000239       0x29 card_spi.o
 .ARM.attributes
                0x00000262       0x29 gdbStub.o
 .ARM.attributes
                0x0000028b       0x29 heap_3.o
 .ARM.attributes
                0x000002b4       0x29 port.o
 .ARM.attributes
                0x000002dd       0x29 portISR.o
 .ARM.attributes
                0x00000306       0x1d gdbStubAsm.o
 .ARM.attributes
                0x00000323       0x1d port_asm.o
 .ARM.attributes
                0x00000340       0x27 c:/devkitPro/PAlib/lib\libpa9.a(PA.o)
 .ARM.attributes
                0x00000367       0x27 c:/devkitPro/PAlib/lib\libpa9.a(PA_BgTiles.o)
 .ARM.attributes
                0x0000038e       0x27 c:/devkitPro/PAlib/lib\libpa9.a(PA_Error.o)
 .ARM.attributes
                0x000003b5       0x27 c:/devkitPro/PAlib/lib\libpa9.a(PA_Inits.o)
 .ARM.attributes
                0x000003dc       0x27 c:/devkitPro/PAlib/lib\libpa9.a(PA_Interrupt.o)
 .ARM.attributes
                0x00000403       0x27 c:/devkitPro/PAlib/lib\libpa9.a(PA_Keys.o)
 .ARM.attributes
                0x0000042a       0x27 c:/devkitPro/PAlib/lib\libpa9.a(PA_Math.o)
 .ARM.attributes
                0x00000451       0x27 c:/devkitPro/PAlib/lib\libpa9.a(PA_NewBg.o)
 .ARM.attributes
                0x00000478       0x27 c:/devkitPro/PAlib/lib\libpa9.a(PA_Palette.o)
 .ARM.attributes
                0x0000049f       0x27 c:/devkitPro/PAlib/lib\libpa9.a(PA_RTC.o)
 .ARM.attributes
                0x000004c6       0x27 c:/devkitPro/PAlib/lib\libpa9.a(PA_Reco.o)
 .ARM.attributes
                0x000004ed       0x27 c:/devkitPro/PAlib/lib\libpa9.a(PA_Sprite.o)
 .ARM.attributes
                0x00000514       0x27 c:/devkitPro/PAlib/lib\libpa9.a(PA_Stuff.o)
 .ARM.attributes
                0x0000053b       0x27 c:/devkitPro/PAlib/lib\libpa9.a(PA_Text.o)
 .ARM.attributes
                0x00000562       0x27 c:/devkitPro/PAlib/lib\libpa9.a(PA_Text8bit.o)
 .ARM.attributes
                0x00000589       0x27 c:/devkitPro/PAlib/lib\libpa9.a(PA_TextBits.o)
 .ARM.attributes
                0x000005b0       0x27 c:/devkitPro/PAlib/lib\libpa9.a(PA_TiledFont.o)
 .ARM.attributes
                0x000005d7       0x27 c:/devkitPro/PAlib/lib\libpa9.a(PA_BmpFont0.o)
 .ARM.attributes
                0x000005fe       0x27 c:/devkitPro/PAlib/lib\libpa9.a(PA_BmpFont1.o)
 .ARM.attributes
                0x00000625       0x27 c:/devkitPro/PAlib/lib\libpa9.a(PA_BmpFont2.o)
 .ARM.attributes
                0x0000064c       0x27 c:/devkitPro/PAlib/lib\libpa9.a(PA_BmpFont3.o)
 .ARM.attributes
                0x00000673       0x27 c:/devkitPro/PAlib/lib\libpa9.a(PA_BmpFont4.o)
 .ARM.attributes
                0x0000069a       0x14 c:/devkitPro/PAlib/lib\libpa9.a(PA_TiledFont_Map.bin.o)
 .ARM.attributes
                0x000006ae       0x14 c:/devkitPro/PAlib/lib\libpa9.a(PA_TiledFont_Pal.bin.o)
 .ARM.attributes
                0x000006c2       0x14 c:/devkitPro/PAlib/lib\libpa9.a(PA_TiledFont_Tiles.bin.o)
 .ARM.attributes
                0x000006d6       0x14 c:/devkitPro/PAlib/lib\libpa9.a(PA_BmpFont0_Map.bin.o)
 .ARM.attributes
                0x000006ea       0x14 c:/devkitPro/PAlib/lib\libpa9.a(PA_BmpFont0_Sizes.bin.o)
 .ARM.attributes
                0x000006fe       0x14 c:/devkitPro/PAlib/lib\libpa9.a(PA_BmpFont0_Tiles.bin.o)
 .ARM.attributes
                0x00000712       0x14 c:/devkitPro/PAlib/lib\libpa9.a(PA_BmpFont1_Map.bin.o)
 .ARM.attributes
                0x00000726       0x14 c:/devkitPro/PAlib/lib\libpa9.a(PA_BmpFont1_Sizes.bin.o)
 .ARM.attributes
                0x0000073a       0x14 c:/devkitPro/PAlib/lib\libpa9.a(PA_BmpFont1_Tiles.bin.o)
 .ARM.attributes
                0x0000074e       0x14 c:/devkitPro/PAlib/lib\libpa9.a(PA_BmpFont2_Map.bin.o)
 .ARM.attributes
                0x00000762       0x14 c:/devkitPro/PAlib/lib\libpa9.a(PA_BmpFont2_Sizes.bin.o)
 .ARM.attributes
                0x00000776       0x14 c:/devkitPro/PAlib/lib\libpa9.a(PA_BmpFont2_Tiles.bin.o)
 .ARM.attributes
                0x0000078a       0x14 c:/devkitPro/PAlib/lib\libpa9.a(PA_BmpFont3_Map.bin.o)
 .ARM.attributes
                0x0000079e       0x14 c:/devkitPro/PAlib/lib\libpa9.a(PA_BmpFont3_Sizes.bin.o)
 .ARM.attributes
                0x000007b2       0x14 c:/devkitPro/PAlib/lib\libpa9.a(PA_BmpFont3_Tiles.bin.o)
 .ARM.attributes
                0x000007c6       0x14 c:/devkitPro/PAlib/lib\libpa9.a(PA_BmpFont4_Map.bin.o)
 .ARM.attributes
                0x000007da       0x14 c:/devkitPro/PAlib/lib\libpa9.a(PA_BmpFont4_Sizes.bin.o)
 .ARM.attributes
                0x000007ee       0x14 c:/devkitPro/PAlib/lib\libpa9.a(PA_BmpFont4_Tiles.bin.o)
 .ARM.attributes
                0x00000802       0x27 c:/devkitPro/PAlib/lib\libpa9.a(PA_16c.o)
 .ARM.attributes
                0x00000829       0x27 c:/devkitPro/PAlib/lib\libpa9.a(PA_BgEasy.o)
 .ARM.attributes
                0x00000850       0x27 c:/devkitPro/PAlib/lib\libpa9.a(PA_BgLargeMap.o)
 .ARM.attributes
                0x00000877       0x27 c:/devkitPro/PAlib/lib\libpa9.a(PA_BgRot.o)
 .ARM.attributes
                0x0000089e       0x27 c:/devkitPro/PAlib/lib\libpa9.a(PA_Draw.o)
 .ARM.attributes
                0x000008c5       0x27 c:/devkitPro/PAlib/lib\libpa9.a(PA_Fifo.o)
 .ARM.attributes
                0x000008ec       0x27 c:/devkitPro/PAlib/lib\libpa9.a(PA_Keyboard.o)
 .ARM.attributes
                0x00000913       0x27 c:/devkitPro/PAlib/lib\libpa9.a(PA_PaletteEx.o)
 .ARM.attributes
                0x0000093a       0x27 c:/devkitPro/PAlib/lib\libpa9.a(keyboard.map.o)
 .ARM.attributes
                0x00000961       0x27 c:/devkitPro/PAlib/lib\libpa9.a(keyboard.pal.o)
 .ARM.attributes
                0x00000988       0x27 c:/devkitPro/PAlib/lib\libpa9.a(keyboard.raw.o)
 .ARM.attributes
                0x000009af       0x29 c:/devkitPro/libnds/lib\libnds9.a(exceptions.o)
 .ARM.attributes
                0x000009d8       0x29 c:/devkitPro/libnds/lib\libnds9.a(keys.o)
 .ARM.attributes
                0x00000a01       0x29 c:/devkitPro/libnds/lib\libnds9.a(system.o)
 .ARM.attributes
                0x00000a2a       0x29 c:/devkitPro/libnds/lib\libnds9.a(touch.o)
 .ARM.attributes
                0x00000a53       0x29 c:/devkitPro/libnds/lib\libnds9.a(video.o)
 .ARM.attributes
                0x00000a7c       0x29 c:/devkitPro/libnds/lib\libnds9.a(initSystem.o)
 .ARM.attributes
                0x00000aa5       0x29 c:/devkitPro/libnds/lib\libnds9.a(fifosystem.o)
 .ARM.attributes
                0x00000ace       0x29 c:/devkitPro/libnds/lib\libnds9.a(interrupts.o)
 .ARM.attributes
                0x00000af7       0x29 c:/devkitPro/libnds/lib\libnds9.a(libnds_exit.arm.o)
 .ARM.attributes
                0x00000b20       0x1d c:/devkitPro/libnds/lib\libnds9.a(dcache.o)
 .ARM.attributes
                0x00000b3d       0x1d c:/devkitPro/libnds/lib\libnds9.a(exceptionHandler.o)
 .ARM.attributes
                0x00000b5a       0x23 c:/devkitPro/libnds/lib\libnds9.a(mpu_setup.o)
 .ARM.attributes
                0x00000b7d       0x1d c:/devkitPro/libnds/lib\libnds9.a(biosCalls.o)
 .ARM.attributes
                0x00000b9a       0x1d c:/devkitPro/libnds/lib\libnds9.a(interruptDispatcher.o)
 .ARM.attributes
                0x00000bb7       0x23 c:/devkitPro/libnds/lib\libnds9.a(swiSoftReset.o)
 .ARM.attributes
                0x00000bda       0x1a c:/devkitpro/devkitarm/bin/../lib/gcc/arm-none-eabi/4.7.1/thumb\libgcc.a(_divsi3.o)
 .ARM.attributes
                0x00000bf4       0x18 c:/devkitpro/devkitarm/bin/../lib/gcc/arm-none-eabi/4.7.1/thumb\libgcc.a(_dvmd_tls.o)
 .ARM.attributes
                0x00000c0c       0x1a c:/devkitpro/devkitarm/bin/../lib/gcc/arm-none-eabi/4.7.1/thumb\libgcc.a(_arm_addsubdf3.o)
 .ARM.attributes
                0x00000c26       0x1a c:/devkitpro/devkitarm/bin/../lib/gcc/arm-none-eabi/4.7.1/thumb\libgcc.a(_arm_muldivdf3.o)
 .ARM.attributes
                0x00000c40       0x1a c:/devkitpro/devkitarm/bin/../lib/gcc/arm-none-eabi/4.7.1/thumb\libgcc.a(_arm_cmpdf2.o)
 .ARM.attributes
                0x00000c5a       0x1a c:/devkitpro/devkitarm/bin/../lib/gcc/arm-none-eabi/4.7.1/thumb\libgcc.a(_arm_fixdfsi.o)
 .ARM.attributes
                0x00000c74       0x32 c:/devkitpro/devkitarm/bin/../lib/gcc/arm-none-eabi/4.7.1/thumb\libgcc.a(_muldi3.o)
 .ARM.attributes
                0x00000ca6       0x32 c:/devkitpro/devkitarm/bin/../lib/gcc/arm-none-eabi/4.7.1/../../../../arm-none-eabi/lib/thumb\libg.a(lib_a-gmtime.o)
 .ARM.attributes
                0x00000cd8       0x32 c:/devkitpro/devkitarm/bin/../lib/gcc/arm-none-eabi/4.7.1/../../../../arm-none-eabi/lib/thumb\libg.a(lib_a-gmtime_r.o)
 .ARM.attributes
                0x00000d0a       0x32 c:/devkitpro/devkitarm/bin/../lib/gcc/arm-none-eabi/4.7.1/../../../../arm-none-eabi/lib/thumb\libg.a(lib_a-impure.o)
 .ARM.attributes
                0x00000d3c       0x32 c:/devkitpro/devkitarm/bin/../lib/gcc/arm-none-eabi/4.7.1/../../../../arm-none-eabi/lib/thumb\libg.a(lib_a-init.o)
 .ARM.attributes
                0x00000d6e       0x32 c:/devkitpro/devkitarm/bin/../lib/gcc/arm-none-eabi/4.7.1/../../../../arm-none-eabi/lib/thumb\libg.a(lib_a-locale.o)
 .ARM.attributes
                0x00000da0       0x32 c:/devkitpro/devkitarm/bin/../lib/gcc/arm-none-eabi/4.7.1/../../../../arm-none-eabi/lib/thumb\libg.a(lib_a-malloc.o)
 .ARM.attributes
                0x00000dd2       0x32 c:/devkitpro/devkitarm/bin/../lib/gcc/arm-none-eabi/4.7.1/../../../../arm-none-eabi/lib/thumb\libg.a(lib_a-mallocr.o)
 .ARM.attributes
                0x00000e04       0x32 c:/devkitpro/devkitarm/bin/../lib/gcc/arm-none-eabi/4.7.1/../../../../arm-none-eabi/lib/thumb\libg.a(lib_a-mbtowc_r.o)
 .ARM.attributes
                0x00000e36       0x32 c:/devkitpro/devkitarm/bin/../lib/gcc/arm-none-eabi/4.7.1/../../../../arm-none-eabi/lib/thumb\libg.a(lib_a-memcpy-stub.o)
 .ARM.attributes
                0x00000e68       0x32 c:/devkitpro/devkitarm/bin/../lib/gcc/arm-none-eabi/4.7.1/../../../../arm-none-eabi/lib/thumb\libg.a(lib_a-memset.o)
 .ARM.attributes
                0x00000e9a       0x32 c:/devkitpro/devkitarm/bin/../lib/gcc/arm-none-eabi/4.7.1/../../../../arm-none-eabi/lib/thumb\libg.a(lib_a-mktm_r.o)
 .ARM.attributes
                0x00000ecc       0x32 c:/devkitpro/devkitarm/bin/../lib/gcc/arm-none-eabi/4.7.1/../../../../arm-none-eabi/lib/thumb\libg.a(lib_a-mlock.o)
 .ARM.attributes
                0x00000efe       0x32 c:/devkitpro/devkitarm/bin/../lib/gcc/arm-none-eabi/4.7.1/../../../../arm-none-eabi/lib/thumb\libg.a(lib_a-sprintf.o)
 .ARM.attributes
                0x00000f30       0x32 c:/devkitpro/devkitarm/bin/../lib/gcc/arm-none-eabi/4.7.1/../../../../arm-none-eabi/lib/thumb\libg.a(lib_a-strcasecmp.o)
 .ARM.attributes
                0x00000f62       0x32 c:/devkitpro/devkitarm/bin/../lib/gcc/arm-none-eabi/4.7.1/../../../../arm-none-eabi/lib/thumb\libg.a(lib_a-strcat.o)
 .ARM.attributes
                0x00000f94       0x32 c:/devkitpro/devkitarm/bin/../lib/gcc/arm-none-eabi/4.7.1/../../../../arm-none-eabi/lib/thumb\libg.a(lib_a-strchr.o)
 .ARM.attributes
                0x00000fc6       0x32 c:/devkitpro/devkitarm/bin/../lib/gcc/arm-none-eabi/4.7.1/../../../../arm-none-eabi/lib/thumb\libg.a(lib_a-strcmp.o)
 .ARM.attributes
                0x00000ff8       0x32 c:/devkitpro/devkitarm/bin/../lib/gcc/arm-none-eabi/4.7.1/../../../../arm-none-eabi/lib/thumb\libg.a(lib_a-strcpy.o)
 .ARM.attributes
                0x0000102a       0x32 c:/devkitpro/devkitarm/bin/../lib/gcc/arm-none-eabi/4.7.1/../../../../arm-none-eabi/lib/thumb\libg.a(lib_a-strlcpy.o)
 .ARM.attributes
                0x0000105c       0x32 c:/devkitpro/devkitarm/bin/../lib/gcc/arm-none-eabi/4.7.1/../../../../arm-none-eabi/lib/thumb\libg.a(lib_a-strlen.o)
 .ARM.attributes
                0x0000108e       0x32 c:/devkitpro/devkitarm/bin/../lib/gcc/arm-none-eabi/4.7.1/../../../../arm-none-eabi/lib/thumb\libg.a(lib_a-strncasecmp.o)
 .ARM.attributes
                0x000010c0       0x32 c:/devkitpro/devkitarm/bin/../lib/gcc/arm-none-eabi/4.7.1/../../../../arm-none-eabi/lib/thumb\libg.a(lib_a-strncmp.o)
 .ARM.attributes
                0x000010f2       0x32 c:/devkitpro/devkitarm/bin/../lib/gcc/arm-none-eabi/4.7.1/../../../../arm-none-eabi/lib/thumb\libg.a(lib_a-strncpy.o)
 .ARM.attributes
                0x00001124       0x32 c:/devkitpro/devkitarm/bin/../lib/gcc/arm-none-eabi/4.7.1/../../../../arm-none-eabi/lib/thumb\libg.a(lib_a-strtol.o)
 .ARM.attributes
                0x00001156       0x32 c:/devkitpro/devkitarm/bin/../lib/gcc/arm-none-eabi/4.7.1/../../../../arm-none-eabi/lib/thumb\libg.a(lib_a-svfprintf.o)
 .ARM.attributes
                0x00001188       0x32 c:/devkitpro/devkitarm/bin/../lib/gcc/arm-none-eabi/4.7.1/../../../../arm-none-eabi/lib/thumb\libg.a(lib_a-sysstat.o)
 .ARM.attributes
                0x000011ba       0x32 c:/devkitpro/devkitarm/bin/../lib/gcc/arm-none-eabi/4.7.1/../../../../arm-none-eabi/lib/thumb\libg.a(lib_a-time.o)
 .ARM.attributes
                0x000011ec       0x32 c:/devkitpro/devkitarm/bin/../lib/gcc/arm-none-eabi/4.7.1/../../../../arm-none-eabi/lib/thumb\libg.a(lib_a-tzlock.o)
 .ARM.attributes
                0x0000121e       0x32 c:/devkitpro/devkitarm/bin/../lib/gcc/arm-none-eabi/4.7.1/../../../../arm-none-eabi/lib/thumb\libg.a(lib_a-tzvars.o)
 .ARM.attributes
                0x00001250       0x32 c:/devkitpro/devkitarm/bin/../lib/gcc/arm-none-eabi/4.7.1/../../../../arm-none-eabi/lib/thumb\libg.a(lib_a-wcrtomb.o)
 .ARM.attributes
                0x00001282       0x32 c:/devkitpro/devkitarm/bin/../lib/gcc/arm-none-eabi/4.7.1/../../../../arm-none-eabi/lib/thumb\libg.a(lib_a-wcsrtombs.o)
 .ARM.attributes
                0x000012b4       0x32 c:/devkitpro/devkitarm/bin/../lib/gcc/arm-none-eabi/4.7.1/../../../../arm-none-eabi/lib/thumb\libg.a(lib_a-wctomb_r.o)
 .ARM.attributes
                0x000012e6       0x32 c:/devkitpro/devkitarm/bin/../lib/gcc/arm-none-eabi/4.7.1/../../../../arm-none-eabi/lib/thumb\libg.a(lib_a-ctype_.o)
 .ARM.attributes
                0x00001318       0x32 c:/devkitpro/devkitarm/bin/../lib/gcc/arm-none-eabi/4.7.1/../../../../arm-none-eabi/lib/thumb\libg.a(lib_a-dtoa.o)
 .ARM.attributes
                0x0000134a       0x32 c:/devkitpro/devkitarm/bin/../lib/gcc/arm-none-eabi/4.7.1/../../../../arm-none-eabi/lib/thumb\libg.a(lib_a-freer.o)
 .ARM.attributes
                0x0000137c       0x32 c:/devkitpro/devkitarm/bin/../lib/gcc/arm-none-eabi/4.7.1/../../../../arm-none-eabi/lib/thumb\libg.a(lib_a-getenv_r.o)
 .ARM.attributes
                0x000013ae       0x32 c:/devkitpro/devkitarm/bin/../lib/gcc/arm-none-eabi/4.7.1/../../../../arm-none-eabi/lib/thumb\libg.a(lib_a-gettzinfo.o)
 .ARM.attributes
                0x000013e0       0x32 c:/devkitpro/devkitarm/bin/../lib/gcc/arm-none-eabi/4.7.1/../../../../arm-none-eabi/lib/thumb\libg.a(lib_a-memchr-stub.o)
 .ARM.attributes
                0x00001412       0x32 c:/devkitpro/devkitarm/bin/../lib/gcc/arm-none-eabi/4.7.1/../../../../arm-none-eabi/lib/thumb\libg.a(lib_a-mprec.o)
 .ARM.attributes
                0x00001444       0x32 c:/devkitpro/devkitarm/bin/../lib/gcc/arm-none-eabi/4.7.1/../../../../arm-none-eabi/lib/thumb\libg.a(lib_a-s_fpclassify.o)
 .ARM.attributes
                0x00001476       0x32 c:/devkitpro/devkitarm/bin/../lib/gcc/arm-none-eabi/4.7.1/../../../../arm-none-eabi/lib/thumb\libg.a(lib_a-svfiprintf.o)
 .ARM.attributes
                0x000014a8       0x32 c:/devkitpro/devkitarm/bin/../lib/gcc/arm-none-eabi/4.7.1/../../../../arm-none-eabi/lib/thumb\libg.a(lib_a-wcsnrtombs.o)
 .ARM.attributes
                0x000014da       0x32 c:/devkitpro/devkitarm/bin/../lib/gcc/arm-none-eabi/4.7.1/../../../../arm-none-eabi/lib/thumb\libg.a(lib_a-callocr.o)
 .ARM.attributes
                0x0000150c       0x32 c:/devkitpro/devkitarm/bin/../lib/gcc/arm-none-eabi/4.7.1/../../../../arm-none-eabi/lib/thumb\libg.a(lib_a-environ.o)
 .ARM.attributes
                0x0000153e       0x32 c:/devkitpro/devkitarm/bin/../lib/gcc/arm-none-eabi/4.7.1/../../../../arm-none-eabi/lib/thumb\libg.a(lib_a-envlock.o)
 .ARM.attributes
                0x00001570       0x32 c:/devkitpro/devkitarm/bin/../lib/gcc/arm-none-eabi/4.7.1/../../../../arm-none-eabi/lib/thumb\libg.a(lib_a-memmove.o)
 .ARM.attributes
                0x000015a2       0x32 c:/devkitpro/devkitarm/bin/../lib/gcc/arm-none-eabi/4.7.1/../../../../arm-none-eabi/lib/thumb\libg.a(lib_a-reallocr.o)
 .ARM.attributes
                0x000015d4       0x32 c:/devkitpro/devkitarm/bin/../lib/gcc/arm-none-eabi/4.7.1/../../../../arm-none-eabi/lib/thumb\libsysbase.a(sbrk.o)
 .ARM.attributes
                0x00001606       0x32 c:/devkitpro/devkitarm/bin/../lib/gcc/arm-none-eabi/4.7.1/../../../../arm-none-eabi/lib/thumb\libsysbase.a(stat.o)
 .ARM.attributes
                0x00001638       0x32 c:/devkitpro/devkitarm/bin/../lib/gcc/arm-none-eabi/4.7.1/../../../../arm-none-eabi/lib/thumb\libsysbase.a(times.o)
 .ARM.attributes
                0x0000166a       0x32 c:/devkitpro/devkitarm/bin/../lib/gcc/arm-none-eabi/4.7.1/../../../../arm-none-eabi/lib/thumb\libsysbase.a(malloc_vars.o)
 .ARM.attributes
                0x0000169c       0x32 c:/devkitpro/devkitarm/bin/../lib/gcc/arm-none-eabi/4.7.1/../../../../arm-none-eabi/lib/thumb\libsysbase.a(build_argv.o)
 .ARM.attributes
                0x000016ce       0x32 c:/devkitpro/devkitarm/bin/../lib/gcc/arm-none-eabi/4.7.1/../../../../arm-none-eabi/lib/thumb\libsysbase.a(syscall_support.o)
 .ARM.attributes
                0x00001700       0x32 c:/devkitpro/devkitarm/bin/../lib/gcc/arm-none-eabi/4.7.1/../../../../arm-none-eabi/lib/thumb\libsysbase.a(dirent.o)
 .ARM.attributes
                0x00001732       0x32 c:/devkitpro/devkitarm/bin/../lib/gcc/arm-none-eabi/4.7.1/../../../../arm-none-eabi/lib/thumb\libsysbase.a(iosupport.o)
 .ARM.attributes
                0x00001764       0x1a c:/devkitpro/devkitarm/bin/../lib/gcc/arm-none-eabi/4.7.1/thumb\libgcc.a(_udivsi3.o)
 .ARM.attributes
                0x0000177e       0x1a c:/devkitpro/devkitarm/bin/../lib/gcc/arm-none-eabi/4.7.1/thumb\libgcc.a(_aeabi_uldivmod.o)
 .ARM.attributes
                0x00001798       0x32 c:/devkitpro/devkitarm/bin/../lib/gcc/arm-none-eabi/4.7.1/thumb\libgcc.a(bpabi.o)
 .ARM.attributes
                0x000017ca       0x32 c:/devkitpro/devkitarm/bin/../lib/gcc/arm-none-eabi/4.7.1/thumb\libgcc.a(_divdi3.o)
 .ARM.attributes
                0x000017fc       0x32 c:/devkitpro/devkitarm/bin/../lib/gcc/arm-none-eabi/4.7.1/thumb\libgcc.a(_udivdi3.o)
 .ARM.attributes
                0x0000182e       0x1a c:/devkitpro/devkitarm/bin/../lib/gcc/arm-none-eabi/4.7.1/thumb\libgcc.a(_clzsi2.o)
 .ARM.attributes
                0x00001848       0x32 c:/devkitpro/devkitarm/bin/../lib/gcc/arm-none-eabi/4.7.1/../../../../arm-none-eabi/lib/thumb\libg.a(lib_a-errno.o)
 .ARM.attributes
                0x0000187a       0x32 c:/devkitpro/devkitarm/bin/../lib/gcc/arm-none-eabi/4.7.1/../../../../arm-none-eabi/lib/thumb\libg.a(lib_a-strnlen.o)
 .ARM.attributes
                0x000018ac       0x32 c:/devkitpro/devkitarm/bin/../lib/gcc/arm-none-eabi/4.7.1/thumb/crtend.o
 .ARM.attributes
                0x000018de       0x18 c:/devkitpro/devkitarm/bin/../lib/gcc/arm-none-eabi/4.7.1/thumb/crtn.o

.debug
 *(.debug)

.line
 *(.line)

.debug_srcinfo
 *(.debug_srcinfo)

.debug_sfnames
 *(.debug_sfnames)

.debug_aranges  0x00000000      0x6b0
 *(.debug_aranges)
 .debug_aranges
                0x00000000       0x20 main.o
 .debug_aranges
                0x00000020       0x20 screen.o
 .debug_aranges
                0x00000040       0x18 map.o
 .debug_aranges
                0x00000058       0x18 start.o
 .debug_aranges
                0x00000070       0x20 croutine.o
 .debug_aranges
                0x00000090       0x20 list.o
 .debug_aranges
                0x000000b0       0x20 queue.o
 .debug_aranges
                0x000000d0       0x20 tasks.o
 .debug_aranges
                0x000000f0       0x20 card_spi.o
 .debug_aranges
                0x00000110       0x20 gdbStub.o
 .debug_aranges
                0x00000130       0x20 heap_3.o
 .debug_aranges
                0x00000150       0x20 port.o
 .debug_aranges
                0x00000170       0x20 portISR.o
 .debug_aranges
                0x00000190       0x20 gdbStubAsm.o
 .debug_aranges
                0x000001b0       0x20 port_asm.o
 .debug_aranges
                0x000001d0       0x20 c:/devkitPro/PAlib/lib\libpa9.a(PA.o)
 .debug_aranges
                0x000001f0       0x20 c:/devkitPro/PAlib/lib\libpa9.a(PA_BgTiles.o)
 .debug_aranges
                0x00000210       0x20 c:/devkitPro/PAlib/lib\libpa9.a(PA_Error.o)
 .debug_aranges
                0x00000230       0x20 c:/devkitPro/PAlib/lib\libpa9.a(PA_Inits.o)
 .debug_aranges
                0x00000250       0x20 c:/devkitPro/PAlib/lib\libpa9.a(PA_Interrupt.o)
 .debug_aranges
                0x00000270       0x20 c:/devkitPro/PAlib/lib\libpa9.a(PA_Keys.o)
 .debug_aranges
                0x00000290       0x20 c:/devkitPro/PAlib/lib\libpa9.a(PA_Math.o)
 .debug_aranges
                0x000002b0       0x20 c:/devkitPro/PAlib/lib\libpa9.a(PA_NewBg.o)
 .debug_aranges
                0x000002d0       0x20 c:/devkitPro/PAlib/lib\libpa9.a(PA_Palette.o)
 .debug_aranges
                0x000002f0       0x20 c:/devkitPro/PAlib/lib\libpa9.a(PA_RTC.o)
 .debug_aranges
                0x00000310       0x20 c:/devkitPro/PAlib/lib\libpa9.a(PA_Reco.o)
 .debug_aranges
                0x00000330       0x20 c:/devkitPro/PAlib/lib\libpa9.a(PA_Sprite.o)
 .debug_aranges
                0x00000350       0x20 c:/devkitPro/PAlib/lib\libpa9.a(PA_Stuff.o)
 .debug_aranges
                0x00000370       0x20 c:/devkitPro/PAlib/lib\libpa9.a(PA_Text.o)
 .debug_aranges
                0x00000390       0x20 c:/devkitPro/PAlib/lib\libpa9.a(PA_Text8bit.o)
 .debug_aranges
                0x000003b0       0x20 c:/devkitPro/PAlib/lib\libpa9.a(PA_TextBits.o)
 .debug_aranges
                0x000003d0       0x20 c:/devkitPro/PAlib/lib\libpa9.a(PA_16c.o)
 .debug_aranges
                0x000003f0       0x20 c:/devkitPro/PAlib/lib\libpa9.a(PA_BgEasy.o)
 .debug_aranges
                0x00000410       0x20 c:/devkitPro/PAlib/lib\libpa9.a(PA_BgLargeMap.o)
 .debug_aranges
                0x00000430       0x20 c:/devkitPro/PAlib/lib\libpa9.a(PA_BgRot.o)
 .debug_aranges
                0x00000450       0x20 c:/devkitPro/PAlib/lib\libpa9.a(PA_Draw.o)
 .debug_aranges
                0x00000470       0x20 c:/devkitPro/PAlib/lib\libpa9.a(PA_Fifo.o)
 .debug_aranges
                0x00000490       0x20 c:/devkitPro/PAlib/lib\libpa9.a(PA_Keyboard.o)
 .debug_aranges
                0x000004b0       0x20 c:/devkitPro/PAlib/lib\libpa9.a(PA_PaletteEx.o)
 .debug_aranges
                0x000004d0       0x20 c:/devkitPro/libnds/lib\libnds9.a(exceptions.o)
 .debug_aranges
                0x000004f0       0x20 c:/devkitPro/libnds/lib\libnds9.a(keys.o)
 .debug_aranges
                0x00000510       0x20 c:/devkitPro/libnds/lib\libnds9.a(system.o)
 .debug_aranges
                0x00000530       0x20 c:/devkitPro/libnds/lib\libnds9.a(touch.o)
 .debug_aranges
                0x00000550       0x20 c:/devkitPro/libnds/lib\libnds9.a(video.o)
 .debug_aranges
                0x00000570       0x20 c:/devkitPro/libnds/lib\libnds9.a(initSystem.o)
 .debug_aranges
                0x00000590       0x20 c:/devkitPro/libnds/lib\libnds9.a(fifosystem.o)
 .debug_aranges
                0x000005b0       0x20 c:/devkitPro/libnds/lib\libnds9.a(interrupts.o)
 .debug_aranges
                0x000005d0       0x20 c:/devkitPro/libnds/lib\libnds9.a(libnds_exit.arm.o)
 .debug_aranges
                0x000005f0       0x20 c:/devkitPro/libnds/lib\libnds9.a(dcache.o)
 .debug_aranges
                0x00000610       0x20 c:/devkitPro/libnds/lib\libnds9.a(exceptionHandler.o)
 .debug_aranges
                0x00000630       0x20 c:/devkitPro/libnds/lib\libnds9.a(mpu_setup.o)
 .debug_aranges
                0x00000650       0x20 c:/devkitPro/libnds/lib\libnds9.a(biosCalls.o)
 .debug_aranges
                0x00000670       0x20 c:/devkitPro/libnds/lib\libnds9.a(interruptDispatcher.o)
 .debug_aranges
                0x00000690       0x20 c:/devkitPro/libnds/lib\libnds9.a(swiSoftReset.o)

.debug_pubnames
                0x00000000     0x102e
 *(.debug_pubnames)
 .debug_pubnames
                0x00000000       0xfe c:/devkitPro/PAlib/lib\libpa9.a(PA.o)
 .debug_pubnames
                0x000000fe      0x12e c:/devkitPro/PAlib/lib\libpa9.a(PA_BgTiles.o)
 .debug_pubnames
                0x0000022c       0x2e c:/devkitPro/PAlib/lib\libpa9.a(PA_Error.o)
 .debug_pubnames
                0x0000025a       0x39 c:/devkitPro/PAlib/lib\libpa9.a(PA_Inits.o)
 .debug_pubnames
                0x00000293       0xa4 c:/devkitPro/PAlib/lib\libpa9.a(PA_Interrupt.o)
 .debug_pubnames
                0x00000337       0x47 c:/devkitPro/PAlib/lib\libpa9.a(PA_Keys.o)
 .debug_pubnames
                0x0000037e       0x40 c:/devkitPro/PAlib/lib\libpa9.a(PA_Math.o)
 .debug_pubnames
                0x000003be       0x73 c:/devkitPro/PAlib/lib\libpa9.a(PA_NewBg.o)
 .debug_pubnames
                0x00000431       0x76 c:/devkitPro/PAlib/lib\libpa9.a(PA_Palette.o)
 .debug_pubnames
                0x000004a7       0x54 c:/devkitPro/PAlib/lib\libpa9.a(PA_RTC.o)
 .debug_pubnames
                0x000004fb       0xd1 c:/devkitPro/PAlib/lib\libpa9.a(PA_Reco.o)
 .debug_pubnames
                0x000005cc      0x1e9 c:/devkitPro/PAlib/lib\libpa9.a(PA_Sprite.o)
 .debug_pubnames
                0x000007b5       0x34 c:/devkitPro/PAlib/lib\libpa9.a(PA_Stuff.o)
 .debug_pubnames
                0x000007e9      0x11c c:/devkitPro/PAlib/lib\libpa9.a(PA_Text.o)
 .debug_pubnames
                0x00000905       0xb4 c:/devkitPro/PAlib/lib\libpa9.a(PA_Text8bit.o)
 .debug_pubnames
                0x000009b9       0xc4 c:/devkitPro/PAlib/lib\libpa9.a(PA_TextBits.o)
 .debug_pubnames
                0x00000a7d       0x23 c:/devkitPro/PAlib/lib\libpa9.a(PA_TiledFont.o)
 .debug_pubnames
                0x00000aa0       0x22 c:/devkitPro/PAlib/lib\libpa9.a(PA_BmpFont0.o)
 .debug_pubnames
                0x00000ac2       0x22 c:/devkitPro/PAlib/lib\libpa9.a(PA_BmpFont1.o)
 .debug_pubnames
                0x00000ae4       0x22 c:/devkitPro/PAlib/lib\libpa9.a(PA_BmpFont2.o)
 .debug_pubnames
                0x00000b06       0x22 c:/devkitPro/PAlib/lib\libpa9.a(PA_BmpFont3.o)
 .debug_pubnames
                0x00000b28       0x22 c:/devkitPro/PAlib/lib\libpa9.a(PA_BmpFont4.o)
 .debug_pubnames
                0x00000b4a       0xb0 c:/devkitPro/PAlib/lib\libpa9.a(PA_16c.o)
 .debug_pubnames
                0x00000bfa       0x68 c:/devkitPro/PAlib/lib\libpa9.a(PA_BgEasy.o)
 .debug_pubnames
                0x00000c62       0xdf c:/devkitPro/PAlib/lib\libpa9.a(PA_BgLargeMap.o)
 .debug_pubnames
                0x00000d41       0x55 c:/devkitPro/PAlib/lib\libpa9.a(PA_BgRot.o)
 .debug_pubnames
                0x00000d96       0xa9 c:/devkitPro/PAlib/lib\libpa9.a(PA_Draw.o)
 .debug_pubnames
                0x00000e3f       0x38 c:/devkitPro/PAlib/lib\libpa9.a(PA_Fifo.o)
 .debug_pubnames
                0x00000e77       0xc0 c:/devkitPro/PAlib/lib\libpa9.a(PA_Keyboard.o)
 .debug_pubnames
                0x00000f37       0x88 c:/devkitPro/PAlib/lib\libpa9.a(PA_PaletteEx.o)
 .debug_pubnames
                0x00000fbf       0x23 c:/devkitPro/PAlib/lib\libpa9.a(keyboard.map.o)
 .debug_pubnames
                0x00000fe2       0x27 c:/devkitPro/PAlib/lib\libpa9.a(keyboard.pal.o)
 .debug_pubnames
                0x00001009       0x25 c:/devkitPro/PAlib/lib\libpa9.a(keyboard.raw.o)

.debug_info     0x00000000    0x46f7c
 *(.debug_info)
 .debug_info    0x00000000     0x1d43 main.o
 .debug_info    0x00001d43     0x2076 screen.o
 .debug_info    0x00003db9      0x188 map.o
 .debug_info    0x00003f41      0x188 start.o
 .debug_info    0x000040c9      0x75a croutine.o
 .debug_info    0x00004823      0x2a6 list.o
 .debug_info    0x00004ac9      0xded queue.o
 .debug_info    0x000058b6     0x19a2 tasks.o
 .debug_info    0x00007258      0xd85 card_spi.o
 .debug_info    0x00007fdd     0x1ba4 gdbStub.o
 .debug_info    0x00009b81      0x177 heap_3.o
 .debug_info    0x00009cf8      0x78d port.o
 .debug_info    0x0000a485       0xf4 portISR.o
 .debug_info    0x0000a579       0x8a gdbStubAsm.o
 .debug_info    0x0000a603       0x88 port_asm.o
 .debug_info    0x0000a68b     0x2481 c:/devkitPro/PAlib/lib\libpa9.a(PA.o)
 .debug_info    0x0000cb0c     0x25f9 c:/devkitPro/PAlib/lib\libpa9.a(PA_BgTiles.o)
 .debug_info    0x0000f105     0x1ec0 c:/devkitPro/PAlib/lib\libpa9.a(PA_Error.o)
 .debug_info    0x00010fc5     0x27ab c:/devkitPro/PAlib/lib\libpa9.a(PA_Inits.o)
 .debug_info    0x00013770     0x20b0 c:/devkitPro/PAlib/lib\libpa9.a(PA_Interrupt.o)
 .debug_info    0x00015820     0x2131 c:/devkitPro/PAlib/lib\libpa9.a(PA_Keys.o)
 .debug_info    0x00017951     0x20be c:/devkitPro/PAlib/lib\libpa9.a(PA_Math.o)
 .debug_info    0x00019a0f     0x28a8 c:/devkitPro/PAlib/lib\libpa9.a(PA_NewBg.o)
 .debug_info    0x0001c2b7     0x2476 c:/devkitPro/PAlib/lib\libpa9.a(PA_Palette.o)
 .debug_info    0x0001e72d     0x22dd c:/devkitPro/PAlib/lib\libpa9.a(PA_RTC.o)
 .debug_info    0x00020a0a     0x2417 c:/devkitPro/PAlib/lib\libpa9.a(PA_Reco.o)
 .debug_info    0x00022e21     0x275a c:/devkitPro/PAlib/lib\libpa9.a(PA_Sprite.o)
 .debug_info    0x0002557b     0x2186 c:/devkitPro/PAlib/lib\libpa9.a(PA_Stuff.o)
 .debug_info    0x00027701     0x24a8 c:/devkitPro/PAlib/lib\libpa9.a(PA_Text.o)
 .debug_info    0x00029ba9     0x349e c:/devkitPro/PAlib/lib\libpa9.a(PA_Text8bit.o)
 .debug_info    0x0002d047     0x2430 c:/devkitPro/PAlib/lib\libpa9.a(PA_TextBits.o)
 .debug_info    0x0002f477      0x1c6 c:/devkitPro/PAlib/lib\libpa9.a(PA_TiledFont.o)
 .debug_info    0x0002f63d      0x1c6 c:/devkitPro/PAlib/lib\libpa9.a(PA_BmpFont0.o)
 .debug_info    0x0002f803      0x1c6 c:/devkitPro/PAlib/lib\libpa9.a(PA_BmpFont1.o)
 .debug_info    0x0002f9c9      0x1c6 c:/devkitPro/PAlib/lib\libpa9.a(PA_BmpFont2.o)
 .debug_info    0x0002fb8f      0x1c6 c:/devkitPro/PAlib/lib\libpa9.a(PA_BmpFont3.o)
 .debug_info    0x0002fd55      0x1c6 c:/devkitPro/PAlib/lib\libpa9.a(PA_BmpFont4.o)
 .debug_info    0x0002ff1b     0x2770 c:/devkitPro/PAlib/lib\libpa9.a(PA_16c.o)
 .debug_info    0x0003268b     0x240e c:/devkitPro/PAlib/lib\libpa9.a(PA_BgEasy.o)
 .debug_info    0x00034a99     0x2d35 c:/devkitPro/PAlib/lib\libpa9.a(PA_BgLargeMap.o)
 .debug_info    0x000377ce     0x2051 c:/devkitPro/PAlib/lib\libpa9.a(PA_BgRot.o)
 .debug_info    0x0003981f     0x21fe c:/devkitPro/PAlib/lib\libpa9.a(PA_Draw.o)
 .debug_info    0x0003ba1d     0x20fa c:/devkitPro/PAlib/lib\libpa9.a(PA_Fifo.o)
 .debug_info    0x0003db17     0x24f4 c:/devkitPro/PAlib/lib\libpa9.a(PA_Keyboard.o)
 .debug_info    0x0004000b     0x2370 c:/devkitPro/PAlib/lib\libpa9.a(PA_PaletteEx.o)
 .debug_info    0x0004237b       0x54 c:/devkitPro/PAlib/lib\libpa9.a(keyboard.map.o)
 .debug_info    0x000423cf       0x53 c:/devkitPro/PAlib/lib\libpa9.a(keyboard.pal.o)
 .debug_info    0x00042422       0x54 c:/devkitPro/PAlib/lib\libpa9.a(keyboard.raw.o)
 .debug_info    0x00042476       0xdd c:/devkitPro/libnds/lib\libnds9.a(exceptions.o)
 .debug_info    0x00042553      0x415 c:/devkitPro/libnds/lib\libnds9.a(keys.o)
 .debug_info    0x00042968      0x91b c:/devkitPro/libnds/lib\libnds9.a(system.o)
 .debug_info    0x00043283      0x302 c:/devkitPro/libnds/lib\libnds9.a(touch.o)
 .debug_info    0x00043585      0x71e c:/devkitPro/libnds/lib\libnds9.a(video.o)
 .debug_info    0x00043ca3     0x1030 c:/devkitPro/libnds/lib\libnds9.a(initSystem.o)
 .debug_info    0x00044cd3     0x1546 c:/devkitPro/libnds/lib\libnds9.a(fifosystem.o)
 .debug_info    0x00046219      0x5b4 c:/devkitPro/libnds/lib\libnds9.a(interrupts.o)
 .debug_info    0x000467cd      0x323 c:/devkitPro/libnds/lib\libnds9.a(libnds_exit.arm.o)
 .debug_info    0x00046af0       0xba c:/devkitPro/libnds/lib\libnds9.a(dcache.o)
 .debug_info    0x00046baa       0xc4 c:/devkitPro/libnds/lib\libnds9.a(exceptionHandler.o)
 .debug_info    0x00046c6e       0xc4 c:/devkitPro/libnds/lib\libnds9.a(mpu_setup.o)
 .debug_info    0x00046d32       0xbf c:/devkitPro/libnds/lib\libnds9.a(biosCalls.o)
 .debug_info    0x00046df1       0xc9 c:/devkitPro/libnds/lib\libnds9.a(interruptDispatcher.o)
 .debug_info    0x00046eba       0xc2 c:/devkitPro/libnds/lib\libnds9.a(swiSoftReset.o)

.debug_abbrev   0x00000000     0x7809
 *(.debug_abbrev)
 .debug_abbrev  0x00000000      0x242 main.o
 .debug_abbrev  0x00000242      0x2d5 screen.o
 .debug_abbrev  0x00000517       0xcb map.o
 .debug_abbrev  0x000005e2       0xcb start.o
 .debug_abbrev  0x000006ad      0x281 croutine.o
 .debug_abbrev  0x0000092e       0xe3 list.o
 .debug_abbrev  0x00000a11      0x277 queue.o
 .debug_abbrev  0x00000c88      0x3bb tasks.o
 .debug_abbrev  0x00001043      0x381 card_spi.o
 .debug_abbrev  0x000013c4      0x4e8 gdbStub.o
 .debug_abbrev  0x000018ac      0x114 heap_3.o
 .debug_abbrev  0x000019c0      0x20f port.o
 .debug_abbrev  0x00001bcf       0x76 portISR.o
 .debug_abbrev  0x00001c45       0x14 gdbStubAsm.o
 .debug_abbrev  0x00001c59       0x14 port_asm.o
 .debug_abbrev  0x00001c6d      0x27d c:/devkitPro/PAlib/lib\libpa9.a(PA.o)
 .debug_abbrev  0x00001eea      0x314 c:/devkitPro/PAlib/lib\libpa9.a(PA_BgTiles.o)
 .debug_abbrev  0x000021fe      0x1e6 c:/devkitPro/PAlib/lib\libpa9.a(PA_Error.o)
 .debug_abbrev  0x000023e4      0x316 c:/devkitPro/PAlib/lib\libpa9.a(PA_Inits.o)
 .debug_abbrev  0x000026fa      0x23f c:/devkitPro/PAlib/lib\libpa9.a(PA_Interrupt.o)
 .debug_abbrev  0x00002939      0x224 c:/devkitPro/PAlib/lib\libpa9.a(PA_Keys.o)
 .debug_abbrev  0x00002b5d      0x292 c:/devkitPro/PAlib/lib\libpa9.a(PA_Math.o)
 .debug_abbrev  0x00002def      0x350 c:/devkitPro/PAlib/lib\libpa9.a(PA_NewBg.o)
 .debug_abbrev  0x0000313f      0x2ba c:/devkitPro/PAlib/lib\libpa9.a(PA_Palette.o)
 .debug_abbrev  0x000033f9      0x239 c:/devkitPro/PAlib/lib\libpa9.a(PA_RTC.o)
 .debug_abbrev  0x00003632      0x30a c:/devkitPro/PAlib/lib\libpa9.a(PA_Reco.o)
 .debug_abbrev  0x0000393c      0x3b1 c:/devkitPro/PAlib/lib\libpa9.a(PA_Sprite.o)
 .debug_abbrev  0x00003ced      0x248 c:/devkitPro/PAlib/lib\libpa9.a(PA_Stuff.o)
 .debug_abbrev  0x00003f35      0x363 c:/devkitPro/PAlib/lib\libpa9.a(PA_Text.o)
 .debug_abbrev  0x00004298      0x34b c:/devkitPro/PAlib/lib\libpa9.a(PA_Text8bit.o)
 .debug_abbrev  0x000045e3      0x2b0 c:/devkitPro/PAlib/lib\libpa9.a(PA_TextBits.o)
 .debug_abbrev  0x00004893       0xcf c:/devkitPro/PAlib/lib\libpa9.a(PA_TiledFont.o)
 .debug_abbrev  0x00004962       0xcf c:/devkitPro/PAlib/lib\libpa9.a(PA_BmpFont0.o)
 .debug_abbrev  0x00004a31       0xcf c:/devkitPro/PAlib/lib\libpa9.a(PA_BmpFont1.o)
 .debug_abbrev  0x00004b00       0xcf c:/devkitPro/PAlib/lib\libpa9.a(PA_BmpFont2.o)
 .debug_abbrev  0x00004bcf       0xcf c:/devkitPro/PAlib/lib\libpa9.a(PA_BmpFont3.o)
 .debug_abbrev  0x00004c9e       0xcf c:/devkitPro/PAlib/lib\libpa9.a(PA_BmpFont4.o)
 .debug_abbrev  0x00004d6d      0x374 c:/devkitPro/PAlib/lib\libpa9.a(PA_16c.o)
 .debug_abbrev  0x000050e1      0x325 c:/devkitPro/PAlib/lib\libpa9.a(PA_BgEasy.o)
 .debug_abbrev  0x00005406      0x340 c:/devkitPro/PAlib/lib\libpa9.a(PA_BgLargeMap.o)
 .debug_abbrev  0x00005746      0x252 c:/devkitPro/PAlib/lib\libpa9.a(PA_BgRot.o)
 .debug_abbrev  0x00005998      0x270 c:/devkitPro/PAlib/lib\libpa9.a(PA_Draw.o)
 .debug_abbrev  0x00005c08      0x211 c:/devkitPro/PAlib/lib\libpa9.a(PA_Fifo.o)
 .debug_abbrev  0x00005e19      0x33d c:/devkitPro/PAlib/lib\libpa9.a(PA_Keyboard.o)
 .debug_abbrev  0x00006156      0x29b c:/devkitPro/PAlib/lib\libpa9.a(PA_PaletteEx.o)
 .debug_abbrev  0x000063f1       0x50 c:/devkitPro/PAlib/lib\libpa9.a(keyboard.map.o)
 .debug_abbrev  0x00006441       0x50 c:/devkitPro/PAlib/lib\libpa9.a(keyboard.pal.o)
 .debug_abbrev  0x00006491       0x50 c:/devkitPro/PAlib/lib\libpa9.a(keyboard.raw.o)
 .debug_abbrev  0x000064e1       0x9a c:/devkitPro/libnds/lib\libnds9.a(exceptions.o)
 .debug_abbrev  0x0000657b      0x185 c:/devkitPro/libnds/lib\libnds9.a(keys.o)
 .debug_abbrev  0x00006700      0x26a c:/devkitPro/libnds/lib\libnds9.a(system.o)
 .debug_abbrev  0x0000696a      0x124 c:/devkitPro/libnds/lib\libnds9.a(touch.o)
 .debug_abbrev  0x00006a8e      0x209 c:/devkitPro/libnds/lib\libnds9.a(video.o)
 .debug_abbrev  0x00006c97      0x2dc c:/devkitPro/libnds/lib\libnds9.a(initSystem.o)
 .debug_abbrev  0x00006f73      0x470 c:/devkitPro/libnds/lib\libnds9.a(fifosystem.o)
 .debug_abbrev  0x000073e3      0x239 c:/devkitPro/libnds/lib\libnds9.a(interrupts.o)
 .debug_abbrev  0x0000761c      0x175 c:/devkitPro/libnds/lib\libnds9.a(libnds_exit.arm.o)
 .debug_abbrev  0x00007791       0x14 c:/devkitPro/libnds/lib\libnds9.a(dcache.o)
 .debug_abbrev  0x000077a5       0x14 c:/devkitPro/libnds/lib\libnds9.a(exceptionHandler.o)
 .debug_abbrev  0x000077b9       0x14 c:/devkitPro/libnds/lib\libnds9.a(mpu_setup.o)
 .debug_abbrev  0x000077cd       0x14 c:/devkitPro/libnds/lib\libnds9.a(biosCalls.o)
 .debug_abbrev  0x000077e1       0x14 c:/devkitPro/libnds/lib\libnds9.a(interruptDispatcher.o)
 .debug_abbrev  0x000077f5       0x14 c:/devkitPro/libnds/lib\libnds9.a(swiSoftReset.o)

.debug_line     0x00000000     0xd1ec
 *(.debug_line)
 .debug_line    0x00000000      0x39d main.o
 .debug_line    0x0000039d      0x429 screen.o
 .debug_line    0x000007c6       0xbd map.o
 .debug_line    0x00000883       0xbf start.o
 .debug_line    0x00000942      0x233 croutine.o
 .debug_line    0x00000b75      0x127 list.o
 .debug_line    0x00000c9c      0x353 queue.o
 .debug_line    0x00000fef      0x6a6 tasks.o
 .debug_line    0x00001695      0x3b7 card_spi.o
 .debug_line    0x00001a4c      0x64d gdbStub.o
 .debug_line    0x00002099      0x16d heap_3.o
 .debug_line    0x00002206      0x1e4 port.o
 .debug_line    0x000023ea       0x88 portISR.o
 .debug_line    0x00002472       0xa8 gdbStubAsm.o
 .debug_line    0x0000251a       0xba port_asm.o
 .debug_line    0x000025d4      0x41c c:/devkitPro/PAlib/lib\libpa9.a(PA.o)
 .debug_line    0x000029f0      0x6df c:/devkitPro/PAlib/lib\libpa9.a(PA_BgTiles.o)
 .debug_line    0x000030cf      0x390 c:/devkitPro/PAlib/lib\libpa9.a(PA_Error.o)
 .debug_line    0x0000345f      0x4e5 c:/devkitPro/PAlib/lib\libpa9.a(PA_Inits.o)
 .debug_line    0x00003944      0x3f2 c:/devkitPro/PAlib/lib\libpa9.a(PA_Interrupt.o)
 .debug_line    0x00003d36      0x40f c:/devkitPro/PAlib/lib\libpa9.a(PA_Keys.o)
 .debug_line    0x00004145      0x45d c:/devkitPro/PAlib/lib\libpa9.a(PA_Math.o)
 .debug_line    0x000045a2      0x6b1 c:/devkitPro/PAlib/lib\libpa9.a(PA_NewBg.o)
 .debug_line    0x00004c53      0x5ca c:/devkitPro/PAlib/lib\libpa9.a(PA_Palette.o)
 .debug_line    0x0000521d      0x40d c:/devkitPro/PAlib/lib\libpa9.a(PA_RTC.o)
 .debug_line    0x0000562a      0x567 c:/devkitPro/PAlib/lib\libpa9.a(PA_Reco.o)
 .debug_line    0x00005b91      0x74e c:/devkitPro/PAlib/lib\libpa9.a(PA_Sprite.o)
 .debug_line    0x000062df      0x401 c:/devkitPro/PAlib/lib\libpa9.a(PA_Stuff.o)
 .debug_line    0x000066e0      0x73b c:/devkitPro/PAlib/lib\libpa9.a(PA_Text.o)
 .debug_line    0x00006e1b      0xa84 c:/devkitPro/PAlib/lib\libpa9.a(PA_Text8bit.o)
 .debug_line    0x0000789f      0x532 c:/devkitPro/PAlib/lib\libpa9.a(PA_TextBits.o)
 .debug_line    0x00007dd1       0xee c:/devkitPro/PAlib/lib\libpa9.a(PA_TiledFont.o)
 .debug_line    0x00007ebf       0xee c:/devkitPro/PAlib/lib\libpa9.a(PA_BmpFont0.o)
 .debug_line    0x00007fad       0xee c:/devkitPro/PAlib/lib\libpa9.a(PA_BmpFont1.o)
 .debug_line    0x0000809b       0xee c:/devkitPro/PAlib/lib\libpa9.a(PA_BmpFont2.o)
 .debug_line    0x00008189       0xee c:/devkitPro/PAlib/lib\libpa9.a(PA_BmpFont3.o)
 .debug_line    0x00008277       0xee c:/devkitPro/PAlib/lib\libpa9.a(PA_BmpFont4.o)
 .debug_line    0x00008365      0x5d8 c:/devkitPro/PAlib/lib\libpa9.a(PA_16c.o)
 .debug_line    0x0000893d      0x4eb c:/devkitPro/PAlib/lib\libpa9.a(PA_BgEasy.o)
 .debug_line    0x00008e28      0xcaf c:/devkitPro/PAlib/lib\libpa9.a(PA_BgLargeMap.o)
 .debug_line    0x00009ad7      0x422 c:/devkitPro/PAlib/lib\libpa9.a(PA_BgRot.o)
 .debug_line    0x00009ef9      0x50e c:/devkitPro/PAlib/lib\libpa9.a(PA_Draw.o)
 .debug_line    0x0000a407      0x42d c:/devkitPro/PAlib/lib\libpa9.a(PA_Fifo.o)
 .debug_line    0x0000a834      0x64d c:/devkitPro/PAlib/lib\libpa9.a(PA_Keyboard.o)
 .debug_line    0x0000ae81      0x4b2 c:/devkitPro/PAlib/lib\libpa9.a(PA_PaletteEx.o)
 .debug_line    0x0000b333       0x55 c:/devkitPro/PAlib/lib\libpa9.a(keyboard.map.o)
 .debug_line    0x0000b388       0x55 c:/devkitPro/PAlib/lib\libpa9.a(keyboard.pal.o)
 .debug_line    0x0000b3dd       0x55 c:/devkitPro/PAlib/lib\libpa9.a(keyboard.raw.o)
 .debug_line    0x0000b432      0x199 c:/devkitPro/libnds/lib\libnds9.a(exceptions.o)
 .debug_line    0x0000b5cb      0x23f c:/devkitPro/libnds/lib\libnds9.a(keys.o)
 .debug_line    0x0000b80a      0x286 c:/devkitPro/libnds/lib\libnds9.a(system.o)
 .debug_line    0x0000ba90      0x21e c:/devkitPro/libnds/lib\libnds9.a(touch.o)
 .debug_line    0x0000bcae      0x241 c:/devkitPro/libnds/lib\libnds9.a(video.o)
 .debug_line    0x0000beef      0x37e c:/devkitPro/libnds/lib\libnds9.a(initSystem.o)
 .debug_line    0x0000c26d      0x6c9 c:/devkitPro/libnds/lib\libnds9.a(fifosystem.o)
 .debug_line    0x0000c936      0x26e c:/devkitPro/libnds/lib\libnds9.a(interrupts.o)
 .debug_line    0x0000cba4      0x1cc c:/devkitPro/libnds/lib\libnds9.a(libnds_exit.arm.o)
 .debug_line    0x0000cd70       0xa2 c:/devkitPro/libnds/lib\libnds9.a(dcache.o)
 .debug_line    0x0000ce12       0xb8 c:/devkitPro/libnds/lib\libnds9.a(exceptionHandler.o)
 .debug_line    0x0000ceca      0x101 c:/devkitPro/libnds/lib\libnds9.a(mpu_setup.o)
 .debug_line    0x0000cfcb       0xc3 c:/devkitPro/libnds/lib\libnds9.a(biosCalls.o)
 .debug_line    0x0000d08e       0xc7 c:/devkitPro/libnds/lib\libnds9.a(interruptDispatcher.o)
 .debug_line    0x0000d155       0x97 c:/devkitPro/libnds/lib\libnds9.a(swiSoftReset.o)

.debug_frame    0x00000000     0x1f98
 *(.debug_frame)
 .debug_frame   0x00000000       0x28 main.o
 .debug_frame   0x00000028       0x44 screen.o
 .debug_frame   0x0000006c       0x90 croutine.o
 .debug_frame   0x000000fc       0x70 list.o
 .debug_frame   0x0000016c      0x188 queue.o
 .debug_frame   0x000002f4      0x378 tasks.o
 .debug_frame   0x0000066c      0x168 card_spi.o
 .debug_frame   0x000007d4      0x220 gdbStub.o
 .debug_frame   0x000009f4       0x40 heap_3.o
 .debug_frame   0x00000a34       0x48 port.o
 .debug_frame   0x00000a7c       0x58 portISR.o
 .debug_frame   0x00000ad4       0x54 c:/devkitPro/PAlib/lib\libpa9.a(PA.o)
 .debug_frame   0x00000b28      0x124 c:/devkitPro/PAlib/lib\libpa9.a(PA_BgTiles.o)
 .debug_frame   0x00000c4c       0x48 c:/devkitPro/PAlib/lib\libpa9.a(PA_Error.o)
 .debug_frame   0x00000c94       0x54 c:/devkitPro/PAlib/lib\libpa9.a(PA_Inits.o)
 .debug_frame   0x00000ce8       0x44 c:/devkitPro/PAlib/lib\libpa9.a(PA_Interrupt.o)
 .debug_frame   0x00000d2c       0x5c c:/devkitPro/PAlib/lib\libpa9.a(PA_Keys.o)
 .debug_frame   0x00000d88       0x3c c:/devkitPro/PAlib/lib\libpa9.a(PA_Math.o)
 .debug_frame   0x00000dc4       0xc8 c:/devkitPro/PAlib/lib\libpa9.a(PA_NewBg.o)
 .debug_frame   0x00000e8c       0x70 c:/devkitPro/PAlib/lib\libpa9.a(PA_Palette.o)
 .debug_frame   0x00000efc       0x44 c:/devkitPro/PAlib/lib\libpa9.a(PA_RTC.o)
 .debug_frame   0x00000f40       0x84 c:/devkitPro/PAlib/lib\libpa9.a(PA_Reco.o)
 .debug_frame   0x00000fc4      0x144 c:/devkitPro/PAlib/lib\libpa9.a(PA_Sprite.o)
 .debug_frame   0x00001108       0x54 c:/devkitPro/PAlib/lib\libpa9.a(PA_Stuff.o)
 .debug_frame   0x0000115c       0xe0 c:/devkitPro/PAlib/lib\libpa9.a(PA_Text.o)
 .debug_frame   0x0000123c      0x150 c:/devkitPro/PAlib/lib\libpa9.a(PA_Text8bit.o)
 .debug_frame   0x0000138c       0x64 c:/devkitPro/PAlib/lib\libpa9.a(PA_TextBits.o)
 .debug_frame   0x000013f0       0xe8 c:/devkitPro/PAlib/lib\libpa9.a(PA_16c.o)
 .debug_frame   0x000014d8       0xa4 c:/devkitPro/PAlib/lib\libpa9.a(PA_BgEasy.o)
 .debug_frame   0x0000157c      0x18c c:/devkitPro/PAlib/lib\libpa9.a(PA_BgLargeMap.o)
 .debug_frame   0x00001708       0x3c c:/devkitPro/PAlib/lib\libpa9.a(PA_BgRot.o)
 .debug_frame   0x00001744       0x3c c:/devkitPro/PAlib/lib\libpa9.a(PA_Draw.o)
 .debug_frame   0x00001780       0x44 c:/devkitPro/PAlib/lib\libpa9.a(PA_Fifo.o)
 .debug_frame   0x000017c4       0xe0 c:/devkitPro/PAlib/lib\libpa9.a(PA_Keyboard.o)
 .debug_frame   0x000018a4       0xa8 c:/devkitPro/PAlib/lib\libpa9.a(PA_PaletteEx.o)
 .debug_frame   0x0000194c       0x20 c:/devkitPro/libnds/lib\libnds9.a(exceptions.o)
 .debug_frame   0x0000196c       0x8c c:/devkitPro/libnds/lib\libnds9.a(keys.o)
 .debug_frame   0x000019f8       0xc8 c:/devkitPro/libnds/lib\libnds9.a(system.o)
 .debug_frame   0x00001ac0       0x44 c:/devkitPro/libnds/lib\libnds9.a(touch.o)
 .debug_frame   0x00001b04       0xc4 c:/devkitPro/libnds/lib\libnds9.a(video.o)
 .debug_frame   0x00001bc8       0x2c c:/devkitPro/libnds/lib\libnds9.a(initSystem.o)
 .debug_frame   0x00001bf4      0x2b8 c:/devkitPro/libnds/lib\libnds9.a(fifosystem.o)
 .debug_frame   0x00001eac       0xb4 c:/devkitPro/libnds/lib\libnds9.a(interrupts.o)
 .debug_frame   0x00001f60       0x38 c:/devkitPro/libnds/lib\libnds9.a(libnds_exit.arm.o)

.debug_str      0x00000000     0x5f17
 *(.debug_str)
 .debug_str     0x00000000      0xce4 main.o
                                0xe12 (size before relaxing)
 .debug_str     0x00000ce4       0xf6 screen.o
                                0xf11 (size before relaxing)
 .debug_str     0x00000dda       0x99 map.o
                                0x123 (size before relaxing)
 .debug_str     0x00000e73       0x41 start.o
                                0x131 (size before relaxing)
 .debug_str     0x00000eb4      0x40f croutine.o
                                0x480 (size before relaxing)
 .debug_str     0x000012c3       0x7a list.o
                                0x201 (size before relaxing)
 .debug_str     0x0000133d      0x447 queue.o
                                0x5c5 (size before relaxing)
 .debug_str     0x00001784      0x6df tasks.o
                                0xa8e (size before relaxing)
 .debug_str     0x00001e63      0x3af card_spi.o
                                0x763 (size before relaxing)
 .debug_str     0x00002212      0x44c gdbStub.o
                                0x8f7 (size before relaxing)
 .debug_str     0x0000265e       0x4d heap_3.o
                                0x134 (size before relaxing)
 .debug_str     0x000026ab       0x8b port.o
                                0x5af (size before relaxing)
 .debug_str     0x00002736       0x65 portISR.o
                                0x13c (size before relaxing)
 .debug_str     0x0000279b      0x285 c:/devkitPro/PAlib/lib\libpa9.a(PA.o)
                               0x1156 (size before relaxing)
 .debug_str     0x00002a20      0x14a c:/devkitPro/PAlib/lib\libpa9.a(PA_BgTiles.o)
                                0xfe6 (size before relaxing)
 .debug_str     0x00002b6a       0x5d c:/devkitPro/PAlib/lib\libpa9.a(PA_Error.o)
                                0xcb5 (size before relaxing)
 .debug_str     0x00002bc7      0x840 c:/devkitPro/PAlib/lib\libpa9.a(PA_Inits.o)
                               0x1707 (size before relaxing)
 .debug_str     0x00003407       0x63 c:/devkitPro/PAlib/lib\libpa9.a(PA_Interrupt.o)
                                0xdf9 (size before relaxing)
 .debug_str     0x0000346a       0x7f c:/devkitPro/PAlib/lib\libpa9.a(PA_Keys.o)
                                0xe45 (size before relaxing)
 .debug_str     0x000034e9       0x8f c:/devkitPro/PAlib/lib\libpa9.a(PA_Math.o)
                                0xda7 (size before relaxing)
 .debug_str     0x00003578      0x156 c:/devkitPro/PAlib/lib\libpa9.a(PA_NewBg.o)
                                0xeee (size before relaxing)
 .debug_str     0x000036ce      0x379 c:/devkitPro/PAlib/lib\libpa9.a(PA_Palette.o)
                               0x10d0 (size before relaxing)
 .debug_str     0x00003a47      0x1c2 c:/devkitPro/PAlib/lib\libpa9.a(PA_RTC.o)
                                0xf4f (size before relaxing)
 .debug_str     0x00003c09      0x159 c:/devkitPro/PAlib/lib\libpa9.a(PA_Reco.o)
                                0xea8 (size before relaxing)
 .debug_str     0x00003d62      0x20d c:/devkitPro/PAlib/lib\libpa9.a(PA_Sprite.o)
                                0xfdb (size before relaxing)
 .debug_str     0x00003f6f      0x186 c:/devkitPro/PAlib/lib\libpa9.a(PA_Stuff.o)
                                0xe11 (size before relaxing)
 .debug_str     0x000040f5      0x149 c:/devkitPro/PAlib/lib\libpa9.a(PA_Text.o)
                                0xf3f (size before relaxing)
 .debug_str     0x0000423e      0x1b4 c:/devkitPro/PAlib/lib\libpa9.a(PA_Text8bit.o)
                                0xf2f (size before relaxing)
 .debug_str     0x000043f2      0x135 c:/devkitPro/PAlib/lib\libpa9.a(PA_TextBits.o)
                                0xf39 (size before relaxing)
 .debug_str     0x00004527       0x43 c:/devkitPro/PAlib/lib\libpa9.a(PA_TiledFont.o)
                                0x16f (size before relaxing)
 .debug_str     0x0000456a       0x43 c:/devkitPro/PAlib/lib\libpa9.a(PA_BmpFont0.o)
                                0x16d (size before relaxing)
 .debug_str     0x000045ad       0x43 c:/devkitPro/PAlib/lib\libpa9.a(PA_BmpFont1.o)
                                0x16d (size before relaxing)
 .debug_str     0x000045f0       0x43 c:/devkitPro/PAlib/lib\libpa9.a(PA_BmpFont2.o)
                                0x16d (size before relaxing)
 .debug_str     0x00004633       0x43 c:/devkitPro/PAlib/lib\libpa9.a(PA_BmpFont3.o)
                                0x16d (size before relaxing)
 .debug_str     0x00004676       0x43 c:/devkitPro/PAlib/lib\libpa9.a(PA_BmpFont4.o)
                                0x16d (size before relaxing)
 .debug_str     0x000046b9      0x10d c:/devkitPro/PAlib/lib\libpa9.a(PA_16c.o)
                                0xf67 (size before relaxing)
 .debug_str     0x000047c6       0x9e c:/devkitPro/PAlib/lib\libpa9.a(PA_BgEasy.o)
                                0xd74 (size before relaxing)
 .debug_str     0x00004864      0x155 c:/devkitPro/PAlib/lib\libpa9.a(PA_BgLargeMap.o)
                                0xe09 (size before relaxing)
 .debug_str     0x000049b9       0x59 c:/devkitPro/PAlib/lib\libpa9.a(PA_BgRot.o)
                                0xdd6 (size before relaxing)
 .debug_str     0x00004a12      0x15f c:/devkitPro/PAlib/lib\libpa9.a(PA_Draw.o)
                                0xe94 (size before relaxing)
 .debug_str     0x00004b71      0x117 c:/devkitPro/PAlib/lib\libpa9.a(PA_Fifo.o)
                                0xe45 (size before relaxing)
 .debug_str     0x00004c88      0x115 c:/devkitPro/PAlib/lib\libpa9.a(PA_Keyboard.o)
                                0xeba (size before relaxing)
 .debug_str     0x00004d9d      0x26f c:/devkitPro/PAlib/lib\libpa9.a(PA_PaletteEx.o)
                               0x11b1 (size before relaxing)
 .debug_str     0x0000500c       0x35 c:/devkitPro/PAlib/lib\libpa9.a(keyboard.map.o)
                                 0x61 (size before relaxing)
 .debug_str     0x00005041       0x35 c:/devkitPro/PAlib/lib\libpa9.a(keyboard.pal.o)
                                 0x65 (size before relaxing)
 .debug_str     0x00005076       0x35 c:/devkitPro/PAlib/lib\libpa9.a(keyboard.raw.o)
                                 0x5e (size before relaxing)
 .debug_str     0x000050ab       0x7c c:/devkitPro/libnds/lib\libnds9.a(exceptions.o)
                                0x11e (size before relaxing)
 .debug_str     0x00005127      0x156 c:/devkitPro/libnds/lib\libnds9.a(keys.o)
                                0x2f5 (size before relaxing)
 .debug_str     0x0000527d      0x2df c:/devkitPro/libnds/lib\libnds9.a(system.o)
                                0x5dd (size before relaxing)
 .debug_str     0x0000555c       0x70 c:/devkitPro/libnds/lib\libnds9.a(touch.o)
                                0x211 (size before relaxing)
 .debug_str     0x000055cc      0x1e4 c:/devkitPro/libnds/lib\libnds9.a(video.o)
                                0xb3e (size before relaxing)
 .debug_str     0x000057b0      0x12a c:/devkitPro/libnds/lib\libnds9.a(initSystem.o)
                                0xa02 (size before relaxing)
 .debug_str     0x000058da      0x4a5 c:/devkitPro/libnds/lib\libnds9.a(fifosystem.o)
                                0x793 (size before relaxing)
 .debug_str     0x00005d7f      0x10e c:/devkitPro/libnds/lib\libnds9.a(interrupts.o)
                                0x382 (size before relaxing)
 .debug_str     0x00005e8d       0x8a c:/devkitPro/libnds/lib\libnds9.a(libnds_exit.arm.o)
                                0x2c6 (size before relaxing)

.debug_loc      0x00000000     0xf315
 *(.debug_loc)
 .debug_loc     0x00000000       0x20 main.o
 .debug_loc     0x00000020       0x40 screen.o
 .debug_loc     0x00000060      0x31e croutine.o
 .debug_loc     0x0000037e       0xb6 list.o
 .debug_loc     0x00000434      0xa7e queue.o
 .debug_loc     0x00000eb2     0x124a tasks.o
 .debug_loc     0x000020fc      0x3d3 card_spi.o
 .debug_loc     0x000024cf     0x1c5c gdbStub.o
 .debug_loc     0x0000412b       0xc1 heap_3.o
 .debug_loc     0x000041ec      0x1c4 port.o
 .debug_loc     0x000043b0       0x60 portISR.o
 .debug_loc     0x00004410       0xa0 c:/devkitPro/PAlib/lib\libpa9.a(PA.o)
 .debug_loc     0x000044b0      0x88e c:/devkitPro/PAlib/lib\libpa9.a(PA_BgTiles.o)
 .debug_loc     0x00004d3e       0xe2 c:/devkitPro/PAlib/lib\libpa9.a(PA_Error.o)
 .debug_loc     0x00004e20      0x17d c:/devkitPro/PAlib/lib\libpa9.a(PA_Inits.o)
 .debug_loc     0x00004f9d       0x68 c:/devkitPro/PAlib/lib\libpa9.a(PA_Interrupt.o)
 .debug_loc     0x00005005       0xb3 c:/devkitPro/PAlib/lib\libpa9.a(PA_Keys.o)
 .debug_loc     0x000050b8      0x2f0 c:/devkitPro/PAlib/lib\libpa9.a(PA_Math.o)
 .debug_loc     0x000053a8      0x922 c:/devkitPro/PAlib/lib\libpa9.a(PA_NewBg.o)
 .debug_loc     0x00005cca      0x3cd c:/devkitPro/PAlib/lib\libpa9.a(PA_Palette.o)
 .debug_loc     0x00006097       0xa1 c:/devkitPro/PAlib/lib\libpa9.a(PA_RTC.o)
 .debug_loc     0x00006138      0x896 c:/devkitPro/PAlib/lib\libpa9.a(PA_Reco.o)
 .debug_loc     0x000069ce      0x87a c:/devkitPro/PAlib/lib\libpa9.a(PA_Sprite.o)
 .debug_loc     0x00007248      0x150 c:/devkitPro/PAlib/lib\libpa9.a(PA_Stuff.o)
 .debug_loc     0x00007398      0xaea c:/devkitPro/PAlib/lib\libpa9.a(PA_Text.o)
 .debug_loc     0x00007e82     0x1c67 c:/devkitPro/PAlib/lib\libpa9.a(PA_Text8bit.o)
 .debug_loc     0x00009ae9      0x739 c:/devkitPro/PAlib/lib\libpa9.a(PA_TextBits.o)
 .debug_loc     0x0000a222      0x7c6 c:/devkitPro/PAlib/lib\libpa9.a(PA_16c.o)
 .debug_loc     0x0000a9e8      0x57d c:/devkitPro/PAlib/lib\libpa9.a(PA_BgEasy.o)
 .debug_loc     0x0000af65     0x1617 c:/devkitPro/PAlib/lib\libpa9.a(PA_BgLargeMap.o)
 .debug_loc     0x0000c57c      0x223 c:/devkitPro/PAlib/lib\libpa9.a(PA_BgRot.o)
 .debug_loc     0x0000c79f      0x3e6 c:/devkitPro/PAlib/lib\libpa9.a(PA_Draw.o)
 .debug_loc     0x0000cb85       0x7d c:/devkitPro/PAlib/lib\libpa9.a(PA_Fifo.o)
 .debug_loc     0x0000cc02      0x5f3 c:/devkitPro/PAlib/lib\libpa9.a(PA_Keyboard.o)
 .debug_loc     0x0000d1f5      0x2fe c:/devkitPro/PAlib/lib\libpa9.a(PA_PaletteEx.o)
 .debug_loc     0x0000d4f3       0x20 c:/devkitPro/libnds/lib\libnds9.a(keys.o)
 .debug_loc     0x0000d513      0x2cf c:/devkitPro/libnds/lib\libnds9.a(system.o)
 .debug_loc     0x0000d7e2      0x115 c:/devkitPro/libnds/lib\libnds9.a(touch.o)
 .debug_loc     0x0000d8f7      0x2a1 c:/devkitPro/libnds/lib\libnds9.a(video.o)
 .debug_loc     0x0000db98       0x3f c:/devkitPro/libnds/lib\libnds9.a(initSystem.o)
 .debug_loc     0x0000dbd7     0x149c c:/devkitPro/libnds/lib\libnds9.a(fifosystem.o)
 .debug_loc     0x0000f073      0x22a c:/devkitPro/libnds/lib\libnds9.a(interrupts.o)
 .debug_loc     0x0000f29d       0x78 c:/devkitPro/libnds/lib\libnds9.a(libnds_exit.arm.o)

.debug_macinfo
 *(.debug_macinfo)

.debug_weaknames
 *(.debug_weaknames)

.debug_funcnames
 *(.debug_funcnames)

.debug_typenames
 *(.debug_typenames)

.debug_varnames
 *(.debug_varnames)

.stack          0x00080000        0x0
                0x00080000                _stack = .
 *(.stack)
LOAD c:/devkitpro/devkitarm/bin/../lib/gcc/arm-none-eabi/4.7.1/../../../../arm-none-eabi/lib/thumb/ds_arm9_crt0.o
LOAD c:/devkitpro/devkitarm/bin/../lib/gcc/arm-none-eabi/4.7.1/thumb/crti.o
LOAD c:/devkitpro/devkitarm/bin/../lib/gcc/arm-none-eabi/4.7.1/thumb/crtbegin.o
LOAD map_Map.o
LOAD map_Pal.o
LOAD map_Tiles.o
LOAD start_Map.o
LOAD start_Pal.o
LOAD start_Tiles.o
LOAD main.o
LOAD screen.o
LOAD map.o
LOAD start.o
LOAD croutine.o
LOAD list.o
LOAD queue.o
LOAD tasks.o
LOAD card_spi.o
LOAD gdbStub.o
LOAD heap_3.o
LOAD port.o
LOAD portISR.o
LOAD gdbStubAsm.o
LOAD port_asm.o
LOAD c:/devkitPro/PAlib/lib\libpa9.a
LOAD c:/devkitPro/libnds/lib\libfilesystem.a
LOAD c:/devkitPro/libnds/lib\libfat.a
LOAD c:/devkitPro/libnds/lib\libnds9.a
START GROUP
LOAD c:/devkitpro/devkitarm/bin/../lib/gcc/arm-none-eabi/4.7.1/thumb\libgcc.a
LOAD c:/devkitpro/devkitarm/bin/../lib/gcc/arm-none-eabi/4.7.1/../../../../arm-none-eabi/lib/thumb\libg.a
LOAD c:/devkitpro/devkitarm/bin/../lib/gcc/arm-none-eabi/4.7.1/../../../../arm-none-eabi/lib/thumb\libc.a
LOAD c:/devkitpro/devkitarm/bin/../lib/gcc/arm-none-eabi/4.7.1/../../../../arm-none-eabi/lib/thumb\libsysbase.a
END GROUP
LOAD c:/devkitpro/devkitarm/bin/../lib/gcc/arm-none-eabi/4.7.1/thumb/crtend.o
LOAD c:/devkitpro/devkitarm/bin/../lib/gcc/arm-none-eabi/4.7.1/thumb/crtn.o
OUTPUT(build.elf elf32-littlearm)

.debug_ranges   0x00000000     0x2ec8
 .debug_ranges  0x00000000       0x10 main.o
 .debug_ranges  0x00000010       0x40 screen.o
 .debug_ranges  0x00000050       0x60 croutine.o
 .debug_ranges  0x000000b0      0x1e8 tasks.o
 .debug_ranges  0x00000298      0x188 card_spi.o
 .debug_ranges  0x00000420      0x420 gdbStub.o
 .debug_ranges  0x00000840      0x100 c:/devkitPro/PAlib/lib\libpa9.a(PA_BgTiles.o)
 .debug_ranges  0x00000940       0xd8 c:/devkitPro/PAlib/lib\libpa9.a(PA_Inits.o)
 .debug_ranges  0x00000a18      0x120 c:/devkitPro/PAlib/lib\libpa9.a(PA_Math.o)
 .debug_ranges  0x00000b38      0x250 c:/devkitPro/PAlib/lib\libpa9.a(PA_NewBg.o)
 .debug_ranges  0x00000d88       0xd0 c:/devkitPro/PAlib/lib\libpa9.a(PA_Palette.o)
 .debug_ranges  0x00000e58       0xc0 c:/devkitPro/PAlib/lib\libpa9.a(PA_Reco.o)
 .debug_ranges  0x00000f18      0x148 c:/devkitPro/PAlib/lib\libpa9.a(PA_Sprite.o)
 .debug_ranges  0x00001060       0x48 c:/devkitPro/PAlib/lib\libpa9.a(PA_Text.o)
 .debug_ranges  0x000010a8      0xce0 c:/devkitPro/PAlib/lib\libpa9.a(PA_Text8bit.o)
 .debug_ranges  0x00001d88       0x28 c:/devkitPro/PAlib/lib\libpa9.a(PA_TextBits.o)
 .debug_ranges  0x00001db0       0x58 c:/devkitPro/PAlib/lib\libpa9.a(PA_16c.o)
 .debug_ranges  0x00001e08      0x108 c:/devkitPro/PAlib/lib\libpa9.a(PA_BgEasy.o)
 .debug_ranges  0x00001f10      0x750 c:/devkitPro/PAlib/lib\libpa9.a(PA_BgLargeMap.o)
 .debug_ranges  0x00002660       0x20 c:/devkitPro/PAlib/lib\libpa9.a(PA_BgRot.o)
 .debug_ranges  0x00002680       0x28 c:/devkitPro/PAlib/lib\libpa9.a(PA_Draw.o)
 .debug_ranges  0x000026a8      0x168 c:/devkitPro/PAlib/lib\libpa9.a(PA_Keyboard.o)
 .debug_ranges  0x00002810       0x78 c:/devkitPro/PAlib/lib\libpa9.a(PA_PaletteEx.o)
 .debug_ranges  0x00002888       0x18 c:/devkitPro/libnds/lib\libnds9.a(touch.o)
 .debug_ranges  0x000028a0       0x78 c:/devkitPro/libnds/lib\libnds9.a(video.o)
 .debug_ranges  0x00002918      0x490 c:/devkitPro/libnds/lib\libnds9.a(fifosystem.o)
 .debug_ranges  0x00002da8      0x120 c:/devkitPro/libnds/lib\libnds9.a(interrupts.o)

.debug_pubtypes
                0x00000000     0x4eb0
 .debug_pubtypes
                0x00000000      0x382 c:/devkitPro/PAlib/lib\libpa9.a(PA.o)
 .debug_pubtypes
                0x00000382      0x33f c:/devkitPro/PAlib/lib\libpa9.a(PA_BgTiles.o)
 .debug_pubtypes
                0x000006c1      0x308 c:/devkitPro/PAlib/lib\libpa9.a(PA_Error.o)
 .debug_pubtypes
                0x000009c9      0x343 c:/devkitPro/PAlib/lib\libpa9.a(PA_Inits.o)
 .debug_pubtypes
                0x00000d0c      0x327 c:/devkitPro/PAlib/lib\libpa9.a(PA_Interrupt.o)
 .debug_pubtypes
                0x00001033      0x350 c:/devkitPro/PAlib/lib\libpa9.a(PA_Keys.o)
 .debug_pubtypes
                0x00001383      0x331 c:/devkitPro/PAlib/lib\libpa9.a(PA_Math.o)
 .debug_pubtypes
                0x000016b4      0x341 c:/devkitPro/PAlib/lib\libpa9.a(PA_NewBg.o)
 .debug_pubtypes
                0x000019f5      0x365 c:/devkitPro/PAlib/lib\libpa9.a(PA_Palette.o)
 .debug_pubtypes
                0x00001d5a      0x349 c:/devkitPro/PAlib/lib\libpa9.a(PA_RTC.o)
 .debug_pubtypes
                0x000020a3      0x341 c:/devkitPro/PAlib/lib\libpa9.a(PA_Reco.o)
 .debug_pubtypes
                0x000023e4      0x33d c:/devkitPro/PAlib/lib\libpa9.a(PA_Sprite.o)
 .debug_pubtypes
                0x00002721      0x3bd c:/devkitPro/PAlib/lib\libpa9.a(PA_Stuff.o)
 .debug_pubtypes
                0x00002ade      0x359 c:/devkitPro/PAlib/lib\libpa9.a(PA_Text.o)
 .debug_pubtypes
                0x00002e37      0x323 c:/devkitPro/PAlib/lib\libpa9.a(PA_Text8bit.o)
 .debug_pubtypes
                0x0000315a      0x316 c:/devkitPro/PAlib/lib\libpa9.a(PA_TextBits.o)
 .debug_pubtypes
                0x00003470       0x2d c:/devkitPro/PAlib/lib\libpa9.a(PA_TiledFont.o)
 .debug_pubtypes
                0x0000349d       0x2d c:/devkitPro/PAlib/lib\libpa9.a(PA_BmpFont0.o)
 .debug_pubtypes
                0x000034ca       0x2d c:/devkitPro/PAlib/lib\libpa9.a(PA_BmpFont1.o)
 .debug_pubtypes
                0x000034f7       0x2d c:/devkitPro/PAlib/lib\libpa9.a(PA_BmpFont2.o)
 .debug_pubtypes
                0x00003524       0x2d c:/devkitPro/PAlib/lib\libpa9.a(PA_BmpFont3.o)
 .debug_pubtypes
                0x00003551       0x2d c:/devkitPro/PAlib/lib\libpa9.a(PA_BmpFont4.o)
 .debug_pubtypes
                0x0000357e      0x32b c:/devkitPro/PAlib/lib\libpa9.a(PA_16c.o)
 .debug_pubtypes
                0x000038a9      0x311 c:/devkitPro/PAlib/lib\libpa9.a(PA_BgEasy.o)
 .debug_pubtypes
                0x00003bba      0x311 c:/devkitPro/PAlib/lib\libpa9.a(PA_BgLargeMap.o)
 .debug_pubtypes
                0x00003ecb      0x314 c:/devkitPro/PAlib/lib\libpa9.a(PA_BgRot.o)
 .debug_pubtypes
                0x000041df      0x327 c:/devkitPro/PAlib/lib\libpa9.a(PA_Draw.o)
 .debug_pubtypes
                0x00004506      0x32d c:/devkitPro/PAlib/lib\libpa9.a(PA_Fifo.o)
 .debug_pubtypes
                0x00004833      0x31d c:/devkitPro/PAlib/lib\libpa9.a(PA_Keyboard.o)
 .debug_pubtypes
                0x00004b50      0x360 c:/devkitPro/PAlib/lib\libpa9.a(PA_PaletteEx.o)
